   1              		.file	"asctecCommIntfOnboard.c"
   9              	.Ltext0:
  10              		.align	2
  11              		.global	aciInit
  13              	aciInit:
  14              	.LFB2:
  15              	.LM1:
  16              		@ Function supports interworking.
  17              		@ args = 0, pretend = 0, frame = 0
  18              		@ frame_needed = 0, uses_anonymous_args = 0
  19              	.LVL0:
  20              	.LM2:
  21 0000 F8309FE5 		ldr	r3, .L20
  22 0004 0010A0E3 		mov	r1, #0
  23              	.LM3:
  24 0008 F4209FE5 		ldr	r2, .L20+4
  25              	.LM4:
  26 000c 001083E5 		str	r1, [r3, #0]
  27              	.LM5:
  28 0010 F0309FE5 		ldr	r3, .L20+8
  29              	.LM6:
  30 0014 F04F2DE9 		stmfd	sp!, {r4, r5, r6, r7, r8, r9, sl, fp, lr}
  31              	.LCFI0:
  32              	.LM7:
  33 0018 001082E5 		str	r1, [r2, #0]
  34              	.LM8:
  35 001c 0008A0E1 		mov	r0, r0, asl #16
  36              	.LVL1:
  37              	.LM9:
  38 0020 E4209FE5 		ldr	r2, .L20+12
  39 0024 E4509FE5 		ldr	r5, .L20+16
  40 0028 E4409FE5 		ldr	r4, .L20+20
  41 002c E4E09FE5 		ldr	lr, .L20+24
  42 0030 E4C09FE5 		ldr	ip, .L20+28
  43 0034 001083E5 		str	r1, [r3, #0]
  44              	.LM10:
  45 0038 20B8A0E1 		mov	fp, r0, lsr #16
  46              	.LVL2:
  47              	.LVL3:
  48 003c 0130A0E1 		mov	r3, r1
  49              	.LVL4:
  50              	.L2:
  51              	.LM11:
  52 0040 0530C1E7 		strb	r3, [r1, r5]
  53              	.LM12:
  54 0044 0430C1E7 		strb	r3, [r1, r4]
  55              	.LM13:
  56 0048 0E30C1E7 		strb	r3, [r1, lr]
  57              	.LM14:
  58 004c 0C30C1E7 		strb	r3, [r1, ip]
  59              	.LM15:
  60 0050 011081E2 		add	r1, r1, #1
  61              	.LM16:
  62 0054 0000A0E3 		mov	r0, #0	@ movhi
  63              	.LM17:
  64 0058 030051E3 		cmp	r1, #3
  65              	.LM18:
  66 005c B200C2E0 		strh	r0, [r2], #2	@ movhi
  67              	.LM19:
  68 0060 F6FFFF1A 		bne	.L2
  69              	.LVL5:
  70 0064 B4909FE5 		ldr	r9, .L20+32
  71 0068 B4809FE5 		ldr	r8, .L20+36
  72 006c B4A09FE5 		ldr	sl, .L20+40
  73 0070 B4709FE5 		ldr	r7, .L20+44
  74 0074 B4509FE5 		ldr	r5, .L20+48
  75 0078 B4609FE5 		ldr	r6, .L20+52
  76              	.LM20:
  77 007c 0040A0E3 		mov	r4, #0
  78              	.LVL6:
  79              	.L6:
  80 0080 840387E0 		add	r0, r7, r4, asl #7
  81 0084 04E485E0 		add	lr, r5, r4, asl #8
  82 0088 04C386E0 		add	ip, r6, r4, asl #6
  83 008c 0030A0E3 		mov	r3, #0
  84              	.L4:
  85              	.LM21:
  86 0090 013083E2 		add	r3, r3, #1
  87              	.LM22:
  88 0094 0020A0E3 		mov	r2, #0
  89              	.LM23:
  90 0098 400053E3 		cmp	r3, #64
  91              	.LM24:
  92 009c B220C0E0 		strh	r2, [r0], #2	@ movhi
  93              	.LM25:
  94 00a0 04208EE4 		str	r2, [lr], #4
  95              	.LM26:
  96 00a4 0120CCE4 		strb	r2, [ip], #1
  97              	.LM27:
  98 00a8 F8FFFF1A 		bne	.L4
  99              	.LM28:
 100 00ac 0A20C4E7 		strb	r2, [r4, sl]
 101              	.LM29:
 102 00b0 0920C4E7 		strb	r2, [r4, r9]
 103              	.LM30:
 104 00b4 0820C4E7 		strb	r2, [r4, r8]
 105              	.LM31:
 106 00b8 014084E2 		add	r4, r4, #1
 107 00bc 030054E3 		cmp	r4, #3
 108 00c0 EEFFFF1A 		bne	.L6
 109 00c4 6C109FE5 		ldr	r1, .L20+56
 110              	.LVL7:
 111 00c8 6CE09FE5 		ldr	lr, .L20+60
 112 00cc 6CC09FE5 		ldr	ip, .L20+64
 113 00d0 0230A0E1 		mov	r3, r2
 114              	.LVL8:
 115              	.L8:
 116              	.LM32:
 117 00d4 0E20C3E7 		strb	r2, [r3, lr]
 118              	.LM33:
 119 00d8 0C20C3E7 		strb	r2, [r3, ip]
 120              	.LM34:
 121 00dc 013083E2 		add	r3, r3, #1
 122              	.LM35:
 123 00e0 0000A0E3 		mov	r0, #0	@ movhi
 124              	.LM36:
 125 00e4 A00053E3 		cmp	r3, #160
 126              	.LM37:
 127 00e8 B200C1E0 		strh	r0, [r1], #2	@ movhi
 128              	.LM38:
 129 00ec F8FFFF1A 		bne	.L8
 130              	.LM39:
 131 00f0 4C309FE5 		ldr	r3, .L20+68
 132              	.LVL9:
 133 00f4 00B083E5 		str	fp, [r3, #0]
 134              	.LM40:
 135 00f8 F04FBDE8 		ldmfd	sp!, {r4, r5, r6, r7, r8, r9, sl, fp, lr}
 136 00fc 1EFF2FE1 		bx	lr
 137              	.L21:
 138              		.align	2
 139              	.L20:
 140 0100 00000000 		.word	aciListVarCount
 141 0104 00000000 		.word	aciListCmdCount
 142 0108 00000000 		.word	aciListParCount
 143 010c 00000000 		.word	aciVarPacketContentBufferLength
 144 0110 00000000 		.word	aciCmdPacketContentBufferValid
 145 0114 00000000 		.word	aciCmdPacketContentBufferInvalidCnt
 146 0118 00000000 		.word	aciParPacketContentBufferValid
 147 011c 00000000 		.word	aciParPacketContentBufferInvalidCnt
 148 0120 00000000 		.word	aciVarPacketMagicCode
 149 0124 00000000 		.word	aciVarPacketSelectLength
 150 0128 00000000 		.word	aciCmdPacketMagicCode
 151 012c 00000000 		.word	aciVarPacketSelect
 152 0130 00000000 		.word	aciVarPacketPtrList
 153 0134 00000000 		.word	aciVarPacketTypeList
 154 0138 00000000 		.word	aciSendSingleId
 155 013c 00000000 		.word	aciSendSingleBuffer
 156 0140 00000000 		.word	aciSendSingleVarType
 157 0144 00000000 		.word	aciEngineRate
 158              	.LFE2:
 160              		.align	2
 161              		.global	aciSetStartTxCallback
 163              	aciSetStartTxCallback:
 164              	.LFB15:
 165              	.LM41:
 166              		@ Function supports interworking.
 167              		@ args = 0, pretend = 0, frame = 0
 168              		@ frame_needed = 0, uses_anonymous_args = 0
 169              		@ link register save eliminated.
 170              	.LVL10:
 171              	.LM42:
 172 0148 04309FE5 		ldr	r3, .L24
 173              	.LM43:
 174              		@ lr needed for prologue
 175              	.LM44:
 176 014c 000083E5 		str	r0, [r3, #0]
 177              	.LM45:
 178 0150 1EFF2FE1 		bx	lr
 179              	.L25:
 180              		.align	2
 181              	.L24:
 182 0154 00000000 		.word	aciStartTxCallback
 183              	.LFE15:
 185              		.align	2
 186              		.global	aciTxRingBufferReset
 188              	aciTxRingBufferReset:
 189              	.LFB17:
 190              	.LM46:
 191              		@ Function supports interworking.
 192              		@ args = 0, pretend = 0, frame = 0
 193              		@ frame_needed = 0, uses_anonymous_args = 0
 194              		@ link register save eliminated.
 195              	.LM47:
 196 0158 10309FE5 		ldr	r3, .L28
 197              	.LM48:
 198 015c 10209FE5 		ldr	r2, .L28+4
 199              	.LM49:
 200 0160 0010A0E3 		mov	r1, #0
 201              	.LM50:
 202              		@ lr needed for prologue
 203              	.LM51:
 204 0164 B010C3E1 		strh	r1, [r3, #0]	@ movhi
 205              	.LM52:
 206 0168 0010C2E5 		strb	r1, [r2, #0]
 207              	.LM53:
 208 016c 1EFF2FE1 		bx	lr
 209              	.L29:
 210              		.align	2
 211              	.L28:
 212 0170 00000000 		.word	aciTxRingBufferWritePtr
 213 0174 00000000 		.word	aciTxRingBufferReadPtr
 214              	.LFE17:
 216              		.align	2
 217              		.global	aciTxRingBufferGetFreeSpace
 219              	aciTxRingBufferGetFreeSpace:
 220              	.LFB18:
 221              	.LM54:
 222              		@ Function supports interworking.
 223              		@ args = 0, pretend = 0, frame = 0
 224              		@ frame_needed = 0, uses_anonymous_args = 0
 225              		@ link register save eliminated.
 226              	.LM55:
 227 0178 30309FE5 		ldr	r3, .L35
 228 017c 30209FE5 		ldr	r2, .L35+4
 229 0180 0000D3E5 		ldrb	r0, [r3, #0]	@ zero_extendqisi2
 230 0184 B010D2E1 		ldrh	r1, [r2, #0]
 231              	.LM56:
 232 0188 003061E0 		rsb	r3, r1, r0
 233              	.LM57:
 234 018c 002061E0 		rsb	r2, r1, r0
 235              	.LM58:
 236 0190 9F3083E2 		add	r3, r3, #159
 237              	.LM59:
 238 0194 012042E2 		sub	r2, r2, #1
 239              	.LM60:
 240 0198 010050E1 		cmp	r0, r1
 241              	.LM61:
 242 019c 0338A0E1 		mov	r3, r3, asl #16
 243              	.LM62:
 244 01a0 0228A0E1 		mov	r2, r2, asl #16
 245              	.LM63:
 246 01a4 2308A0E1 		mov	r0, r3, lsr #16
 247              	.LM64:
 248 01a8 2208A081 		movhi	r0, r2, lsr #16
 249              	.LM65:
 250              		@ lr needed for prologue
 251              	.LM66:
 252 01ac 1EFF2FE1 		bx	lr
 253              	.L36:
 254              		.align	2
 255              	.L35:
 256 01b0 00000000 		.word	aciTxRingBufferReadPtr
 257 01b4 00000000 		.word	aciTxRingBufferWritePtr
 258              	.LFE18:
 260              		.align	2
 261              		.global	aciTxRingBufferByteAvailable
 263              	aciTxRingBufferByteAvailable:
 264              	.LFB20:
 265              	.LM67:
 266              		@ Function supports interworking.
 267              		@ args = 0, pretend = 0, frame = 0
 268              		@ frame_needed = 0, uses_anonymous_args = 0
 269 01b8 04E02DE5 		str	lr, [sp, #-4]!
 270              	.LCFI1:
 271              	.LM68:
 272 01bc FEFFFFEB 		bl	aciTxRingBufferGetFreeSpace
 273              	.LM69:
 274 01c0 9F0050E2 		subs	r0, r0, #159
 275 01c4 0100A013 		movne	r0, #1
 276 01c8 04E09DE4 		ldr	lr, [sp], #4
 277 01cc 1EFF2FE1 		bx	lr
 278              	.LFE20:
 280              		.align	2
 281              		.global	aciTxRingBufferGetNextByte
 283              	aciTxRingBufferGetNextByte:
 284              	.LFB21:
 285              	.LM70:
 286              		@ Function supports interworking.
 287              		@ args = 0, pretend = 0, frame = 0
 288              		@ frame_needed = 0, uses_anonymous_args = 0
 289 01d0 04E02DE5 		str	lr, [sp, #-4]!
 290              	.LCFI2:
 291              	.LM71:
 292 01d4 FEFFFFEB 		bl	aciTxRingBufferByteAvailable
 293 01d8 000050E3 		cmp	r0, #0
 294              	.LM72:
 295 01dc 38C09FE5 		ldr	ip, .L44
 296              	.LM73:
 297 01e0 0B00000A 		beq	.L42
 298              	.LM74:
 299 01e4 0000DCE5 		ldrb	r0, [ip, #0]	@ zero_extendqisi2
 300              	.LM75:
 301 01e8 30209FE5 		ldr	r2, .L44+4
 302 01ec 011080E2 		add	r1, r0, #1
 303 01f0 FF1001E2 		and	r1, r1, #255
 304 01f4 92E183E0 		umull	lr, r3, r2, r1
 305 01f8 A333A0E1 		mov	r3, r3, lsr #7
 306 01fc 033183E0 		add	r3, r3, r3, asl #2
 307 0200 831241E0 		sub	r1, r1, r3, asl #5
 308              	.LM76:
 309 0204 18309FE5 		ldr	r3, .L44+8
 310 0208 0020D3E7 		ldrb	r2, [r3, r0]	@ zero_extendqisi2
 311              	.LVL11:
 312              	.LM77:
 313 020c 0010CCE5 		strb	r1, [ip, #0]
 314              	.LM78:
 315 0210 0200A0E1 		mov	r0, r2
 316              	.L42:
 317              	.LM79:
 318 0214 04E09DE4 		ldr	lr, [sp], #4
 319 0218 1EFF2FE1 		bx	lr
 320              	.L45:
 321              		.align	2
 322              	.L44:
 323 021c 00000000 		.word	aciTxRingBufferReadPtr
 324 0220 CDCCCCCC 		.word	-858993459
 325 0224 00000000 		.word	aciTxRingBuffer
 326              	.LFE21:
 328              		.align	2
 329              		.global	aciCrcUpdate
 331              	aciCrcUpdate:
 332              	.LFB22:
 333              	.LM80:
 334              		@ Function supports interworking.
 335              		@ args = 0, pretend = 0, frame = 0
 336              		@ frame_needed = 0, uses_anonymous_args = 0
 337              		@ link register save eliminated.
 338              	.LVL12:
 339 0228 0008A0E1 		mov	r0, r0, asl #16
 340              	.LVL13:
 341              	.LM81:
 342 022c 201821E0 		eor	r1, r1, r0, lsr #16
 343              	.LVL14:
 344 0230 FF1001E2 		and	r1, r1, #255
 345              	.LVL15:
 346              	.LM82:
 347 0234 011221E0 		eor	r1, r1, r1, asl #4
 348              	.LVL16:
 349 0238 FF1001E2 		and	r1, r1, #255
 350              	.LVL17:
 351              	.LM83:
 352 023c 8131A0E1 		mov	r3, r1, asl #3
 353 0240 200CA0E1 		mov	r0, r0, lsr #24
 354 0244 213223E0 		eor	r3, r3, r1, lsr #4
 355 0248 010480E1 		orr	r0, r0, r1, asl #8
 356              	.LM84:
 357 024c 030020E0 		eor	r0, r0, r3
 358              	.LM85:
 359              		@ lr needed for prologue
 360              	.LM86:
 361 0250 1EFF2FE1 		bx	lr
 362              	.LFE22:
 364              		.align	2
 365              		.global	aciUpdateCrc16
 367              	aciUpdateCrc16:
 368              	.LFB23:
 369              	.LM87:
 370              		@ Function supports interworking.
 371              		@ args = 0, pretend = 0, frame = 0
 372              		@ frame_needed = 0, uses_anonymous_args = 0
 373              	.LVL18:
 374 0254 0228A0E1 		mov	r2, r2, asl #16
 375              	.LVL19:
 376 0258 70402DE9 		stmfd	sp!, {r4, r5, r6, lr}
 377              	.LCFI3:
 378              	.LM88:
 379 025c 2268A0E1 		mov	r6, r2, lsr #16
 380              	.LVL20:
 381 0260 0008A0E1 		mov	r0, r0, asl #16
 382              	.LVL21:
 383              	.LM89:
 384 0264 000056E3 		cmp	r6, #0
 385              	.LM90:
 386 0268 0150A0E1 		mov	r5, r1
 387 026c 2008A0E1 		mov	r0, r0, lsr #16
 388              	.LVL22:
 389              	.LM91:
 390 0270 050000DA 		ble	.L51
 391              	.LVL23:
 392 0274 0040A0E3 		mov	r4, #0
 393              	.LVL24:
 394              	.L52:
 395              	.LM92:
 396 0278 0510D4E7 		ldrb	r1, [r4, r5]	@ zero_extendqisi2
 397              	.LM93:
 398 027c 014084E2 		add	r4, r4, #1
 399              	.LM94:
 400 0280 FEFFFFEB 		bl	aciCrcUpdate
 401              	.LVL25:
 402              	.LM95:
 403 0284 040056E1 		cmp	r6, r4
 404 0288 FAFFFF1A 		bne	.L52
 405              	.LVL26:
 406              	.L51:
 407              	.LVL27:
 408              	.LM96:
 409 028c 7040BDE8 		ldmfd	sp!, {r4, r5, r6, lr}
 410 0290 1EFF2FE1 		bx	lr
 411              	.LFE23:
 413              		.align	2
 414              		.global	aciPublishParameterInt
 416              	aciPublishParameterInt:
 417              	.LFB7:
 418              	.LM97:
 419              		@ Function supports interworking.
 420              		@ args = 8, pretend = 0, frame = 72
 421              		@ frame_needed = 0, uses_anonymous_args = 0
 422              	.LVL28:
 423 0294 F04F2DE9 		stmfd	sp!, {r4, r5, r6, r7, r8, r9, sl, fp, lr}
 424              	.LCFI4:
 425              	.LM98:
 426 0298 94519FE5 		ldr	r5, .L59
 427 029c 00E095E5 		ldr	lr, [r5, #0]
 428              	.LM99:
 429 02a0 90519FE5 		ldr	r5, .L59+4
 430 02a4 8EC18EE0 		add	ip, lr, lr, asl #3
 431              	.LM100:
 432 02a8 48D04DE2 		sub	sp, sp, #72
 433              	.LCFI5:
 434              	.LM101:
 435 02ac 8CC08EE0 		add	ip, lr, ip, asl #1
 436 02b0 05408CE0 		add	r4, ip, r5
 437              	.LM102:
 438 02b4 6C709DE5 		ldr	r7, [sp, #108]
 439              	.LM103:
 440 02b8 3CC08DE5 		str	ip, [sp, #60]
 441              	.LM104:
 442 02bc 32005EE3 		cmp	lr, #50
 443              	.LM105:
 444 02c0 23CCA0E1 		mov	ip, r3, lsr #24
 445 02c4 23E4A0E1 		mov	lr, r3, lsr #8
 446              	.LM106:
 447 02c8 0350A0E1 		mov	r5, r3
 448              	.LM107:
 449 02cc 2338A0E1 		mov	r3, r3, lsr #16
 450              	.LVL29:
 451              	.LM108:
 452 02d0 70809DE5 		ldr	r8, [sp, #112]
 453              	.LM109:
 454 02d4 30C08DE5 		str	ip, [sp, #48]
 455 02d8 38E08DE5 		str	lr, [sp, #56]
 456              	.LM110:
 457 02dc 20CCA0E1 		mov	ip, r0, lsr #24
 458 02e0 20E4A0E1 		mov	lr, r0, lsr #8
 459              	.LM111:
 460 02e4 34308DE5 		str	r3, [sp, #52]
 461              	.LM112:
 462 02e8 2038A0E1 		mov	r3, r0, lsr #16
 463 02ec 0CC08DE5 		str	ip, [sp, #12]
 464 02f0 14E08DE5 		str	lr, [sp, #20]
 465              	.LM113:
 466 02f4 27CCA0E1 		mov	ip, r7, lsr #24
 467 02f8 27E4A0E1 		mov	lr, r7, lsr #8
 468              	.LM114:
 469 02fc 10308DE5 		str	r3, [sp, #16]
 470              	.LM115:
 471 0300 2738A0E1 		mov	r3, r7, lsr #16
 472 0304 24C08DE5 		str	ip, [sp, #36]
 473 0308 2CE08DE5 		str	lr, [sp, #44]
 474 030c 28308DE5 		str	r3, [sp, #40]
 475              	.LM116:
 476 0310 28CCA0E1 		mov	ip, r8, lsr #24
 477 0314 28E4A0E1 		mov	lr, r8, lsr #8
 478 0318 2838A0E1 		mov	r3, r8, lsr #16
 479              	.LM117:
 480 031c B024CDE1 		strh	r2, [sp, #64]	@ movhi
 481 0320 4410CDE5 		strb	r1, [sp, #68]
 482              	.LM118:
 483 0324 0CB084E2 		add	fp, r4, #12
 484              	.LM119:
 485 0328 04A084E2 		add	sl, r4, #4
 486              	.LM120:
 487 032c 089084E2 		add	r9, r4, #8
 488              	.LM121:
 489 0330 0220A0E3 		mov	r2, #2
 490              	.LVL30:
 491 0334 40108DE2 		add	r1, sp, #64
 492              	.LVL31:
 493              	.LM122:
 494 0338 0060A0E1 		mov	r6, r0
 495              	.LM123:
 496 033c 18C08DE5 		str	ip, [sp, #24]
 497 0340 20E08DE5 		str	lr, [sp, #32]
 498 0344 1C308DE5 		str	r3, [sp, #28]
 499              	.LM124:
 500 0348 3600000A 		beq	.L58
 501              	.LVL32:
 502              	.LM125:
 503 034c 40C0DDE5 		ldrb	ip, [sp, #64]	@ zero_extendqisi2
 504              	.LVL33:
 505 0350 41E0DDE5 		ldrb	lr, [sp, #65]	@ zero_extendqisi2
 506 0354 08C08DE5 		str	ip, [sp, #8]
 507              	.LM126:
 508 0358 4430DDE5 		ldrb	r3, [sp, #68]	@ zero_extendqisi2
 509              	.LM127:
 510 035c D8C09FE5 		ldr	ip, .L59+8
 511              	.LM128:
 512 0360 08408DE8 		stmia	sp, {r3, lr}	@ phole stm
 513              	.LM129:
 514 0364 B000DCE1 		ldrh	r0, [ip, #0]
 515              	.LM130:
 516 0368 3CE09DE5 		ldr	lr, [sp, #60]
 517 036c 08C09DE5 		ldr	ip, [sp, #8]
 518 0370 C0309FE5 		ldr	r3, .L59+4
 519 0374 03C0CEE7 		strb	ip, [lr, r3]
 520 0378 04E09DE5 		ldr	lr, [sp, #4]
 521 037c 01E0C4E5 		strb	lr, [r4, #1]
 522              	.LM131:
 523 0380 00309DE5 		ldr	r3, [sp, #0]
 524 0384 0E30C4E5 		strb	r3, [r4, #14]
 525              	.LM132:
 526 0388 38C09DE5 		ldr	ip, [sp, #56]
 527 038c 03C0C4E5 		strb	ip, [r4, #3]
 528 0390 34E09DE5 		ldr	lr, [sp, #52]
 529 0394 04E0C4E5 		strb	lr, [r4, #4]
 530 0398 30309DE5 		ldr	r3, [sp, #48]
 531 039c 0250C4E5 		strb	r5, [r4, #2]
 532 03a0 0530C4E5 		strb	r3, [r4, #5]
 533              	.LM133:
 534 03a4 24509DE5 		ldr	r5, [sp, #36]
 535              	.LVL34:
 536 03a8 0550CAE5 		strb	r5, [sl, #5]
 537 03ac 2CC09DE5 		ldr	ip, [sp, #44]
 538 03b0 03C0CAE5 		strb	ip, [sl, #3]
 539 03b4 28E09DE5 		ldr	lr, [sp, #40]
 540 03b8 0270CAE5 		strb	r7, [sl, #2]
 541 03bc 04E0CAE5 		strb	lr, [sl, #4]
 542              	.LM134:
 543 03c0 18309DE5 		ldr	r3, [sp, #24]
 544 03c4 0530C9E5 		strb	r3, [r9, #5]
 545 03c8 20509DE5 		ldr	r5, [sp, #32]
 546 03cc 0350C9E5 		strb	r5, [r9, #3]
 547 03d0 1CC09DE5 		ldr	ip, [sp, #28]
 548 03d4 04C0C9E5 		strb	ip, [r9, #4]
 549 03d8 0280C9E5 		strb	r8, [r9, #2]
 550              	.LM135:
 551 03dc 0CE09DE5 		ldr	lr, [sp, #12]
 552 03e0 06E0CBE5 		strb	lr, [fp, #6]
 553 03e4 14309DE5 		ldr	r3, [sp, #20]
 554 03e8 0430CBE5 		strb	r3, [fp, #4]
 555 03ec 10509DE5 		ldr	r5, [sp, #16]
 556 03f0 0360CBE5 		strb	r6, [fp, #3]
 557 03f4 0550CBE5 		strb	r5, [fp, #5]
 558              	.LM136:
 559 03f8 FEFFFFEB 		bl	aciUpdateCrc16
 560 03fc 38C09FE5 		ldr	ip, .L59+8
 561              	.LM137:
 562 0400 0120A0E3 		mov	r2, #1
 563 0404 44108DE2 		add	r1, sp, #68
 564              	.LM138:
 565 0408 B000CCE1 		strh	r0, [ip, #0]	@ movhi
 566              	.LM139:
 567 040c FEFFFFEB 		bl	aciUpdateCrc16
 568              	.LM140:
 569 0410 1CE09FE5 		ldr	lr, .L59
 570 0414 00309EE5 		ldr	r3, [lr, #0]
 571              	.LM141:
 572 0418 1C209FE5 		ldr	r2, .L59+8
 573              	.LM142:
 574 041c 013083E2 		add	r3, r3, #1
 575              	.LM143:
 576 0420 B000C2E1 		strh	r0, [r2, #0]	@ movhi
 577              	.LM144:
 578 0424 00308EE5 		str	r3, [lr, #0]
 579              	.LVL35:
 580              	.L58:
 581              	.LM145:
 582 0428 48D08DE2 		add	sp, sp, #72
 583 042c F04FBDE8 		ldmfd	sp!, {r4, r5, r6, r7, r8, r9, sl, fp, lr}
 584 0430 1EFF2FE1 		bx	lr
 585              	.L60:
 586              		.align	2
 587              	.L59:
 588 0434 00000000 		.word	aciListParCount
 589 0438 00000000 		.word	aciListPar
 590 043c 00000000 		.word	aciMagicCodePar
 591              	.LFE7:
 593              		.align	2
 594              		.global	aciPublishCommandInt
 596              	aciPublishCommandInt:
 597              	.LFB6:
 598              	.LM146:
 599              		@ Function supports interworking.
 600              		@ args = 8, pretend = 0, frame = 72
 601              		@ frame_needed = 0, uses_anonymous_args = 0
 602              	.LVL36:
 603 0440 F04F2DE9 		stmfd	sp!, {r4, r5, r6, r7, r8, r9, sl, fp, lr}
 604              	.LCFI6:
 605              	.LM147:
 606 0444 94519FE5 		ldr	r5, .L65
 607 0448 00E095E5 		ldr	lr, [r5, #0]
 608              	.LM148:
 609 044c 90519FE5 		ldr	r5, .L65+4
 610 0450 8EC18EE0 		add	ip, lr, lr, asl #3
 611              	.LM149:
 612 0454 48D04DE2 		sub	sp, sp, #72
 613              	.LCFI7:
 614              	.LM150:
 615 0458 8CC08EE0 		add	ip, lr, ip, asl #1
 616 045c 05408CE0 		add	r4, ip, r5
 617              	.LM151:
 618 0460 6C709DE5 		ldr	r7, [sp, #108]
 619              	.LM152:
 620 0464 3CC08DE5 		str	ip, [sp, #60]
 621              	.LM153:
 622 0468 32005EE3 		cmp	lr, #50
 623              	.LM154:
 624 046c 23CCA0E1 		mov	ip, r3, lsr #24
 625 0470 23E4A0E1 		mov	lr, r3, lsr #8
 626              	.LM155:
 627 0474 0350A0E1 		mov	r5, r3
 628              	.LM156:
 629 0478 2338A0E1 		mov	r3, r3, lsr #16
 630              	.LVL37:
 631              	.LM157:
 632 047c 70809DE5 		ldr	r8, [sp, #112]
 633              	.LM158:
 634 0480 30C08DE5 		str	ip, [sp, #48]
 635 0484 38E08DE5 		str	lr, [sp, #56]
 636              	.LM159:
 637 0488 20CCA0E1 		mov	ip, r0, lsr #24
 638 048c 20E4A0E1 		mov	lr, r0, lsr #8
 639              	.LM160:
 640 0490 34308DE5 		str	r3, [sp, #52]
 641              	.LM161:
 642 0494 2038A0E1 		mov	r3, r0, lsr #16
 643 0498 0CC08DE5 		str	ip, [sp, #12]
 644 049c 14E08DE5 		str	lr, [sp, #20]
 645              	.LM162:
 646 04a0 27CCA0E1 		mov	ip, r7, lsr #24
 647 04a4 27E4A0E1 		mov	lr, r7, lsr #8
 648              	.LM163:
 649 04a8 10308DE5 		str	r3, [sp, #16]
 650              	.LM164:
 651 04ac 2738A0E1 		mov	r3, r7, lsr #16
 652 04b0 24C08DE5 		str	ip, [sp, #36]
 653 04b4 2CE08DE5 		str	lr, [sp, #44]
 654 04b8 28308DE5 		str	r3, [sp, #40]
 655              	.LM165:
 656 04bc 28CCA0E1 		mov	ip, r8, lsr #24
 657 04c0 28E4A0E1 		mov	lr, r8, lsr #8
 658 04c4 2838A0E1 		mov	r3, r8, lsr #16
 659              	.LM166:
 660 04c8 B024CDE1 		strh	r2, [sp, #64]	@ movhi
 661 04cc 4410CDE5 		strb	r1, [sp, #68]
 662              	.LM167:
 663 04d0 0CB084E2 		add	fp, r4, #12
 664              	.LM168:
 665 04d4 04A084E2 		add	sl, r4, #4
 666              	.LM169:
 667 04d8 089084E2 		add	r9, r4, #8
 668              	.LM170:
 669 04dc 0220A0E3 		mov	r2, #2
 670              	.LVL38:
 671 04e0 40108DE2 		add	r1, sp, #64
 672              	.LVL39:
 673              	.LM171:
 674 04e4 0060A0E1 		mov	r6, r0
 675              	.LM172:
 676 04e8 18C08DE5 		str	ip, [sp, #24]
 677 04ec 20E08DE5 		str	lr, [sp, #32]
 678 04f0 1C308DE5 		str	r3, [sp, #28]
 679              	.LM173:
 680 04f4 3600000A 		beq	.L64
 681              	.LVL40:
 682              	.LM174:
 683 04f8 40C0DDE5 		ldrb	ip, [sp, #64]	@ zero_extendqisi2
 684              	.LVL41:
 685 04fc 41E0DDE5 		ldrb	lr, [sp, #65]	@ zero_extendqisi2
 686 0500 08C08DE5 		str	ip, [sp, #8]
 687              	.LM175:
 688 0504 4430DDE5 		ldrb	r3, [sp, #68]	@ zero_extendqisi2
 689              	.LM176:
 690 0508 D8C09FE5 		ldr	ip, .L65+8
 691              	.LM177:
 692 050c 08408DE8 		stmia	sp, {r3, lr}	@ phole stm
 693              	.LM178:
 694 0510 B000DCE1 		ldrh	r0, [ip, #0]
 695              	.LM179:
 696 0514 3CE09DE5 		ldr	lr, [sp, #60]
 697 0518 08C09DE5 		ldr	ip, [sp, #8]
 698 051c C0309FE5 		ldr	r3, .L65+4
 699 0520 03C0CEE7 		strb	ip, [lr, r3]
 700 0524 04E09DE5 		ldr	lr, [sp, #4]
 701 0528 01E0C4E5 		strb	lr, [r4, #1]
 702              	.LM180:
 703 052c 00309DE5 		ldr	r3, [sp, #0]
 704 0530 0E30C4E5 		strb	r3, [r4, #14]
 705              	.LM181:
 706 0534 38C09DE5 		ldr	ip, [sp, #56]
 707 0538 03C0C4E5 		strb	ip, [r4, #3]
 708 053c 34E09DE5 		ldr	lr, [sp, #52]
 709 0540 04E0C4E5 		strb	lr, [r4, #4]
 710 0544 30309DE5 		ldr	r3, [sp, #48]
 711 0548 0250C4E5 		strb	r5, [r4, #2]
 712 054c 0530C4E5 		strb	r3, [r4, #5]
 713              	.LM182:
 714 0550 24509DE5 		ldr	r5, [sp, #36]
 715              	.LVL42:
 716 0554 0550CAE5 		strb	r5, [sl, #5]
 717 0558 2CC09DE5 		ldr	ip, [sp, #44]
 718 055c 03C0CAE5 		strb	ip, [sl, #3]
 719 0560 28E09DE5 		ldr	lr, [sp, #40]
 720 0564 0270CAE5 		strb	r7, [sl, #2]
 721 0568 04E0CAE5 		strb	lr, [sl, #4]
 722              	.LM183:
 723 056c 18309DE5 		ldr	r3, [sp, #24]
 724 0570 0530C9E5 		strb	r3, [r9, #5]
 725 0574 20509DE5 		ldr	r5, [sp, #32]
 726 0578 0350C9E5 		strb	r5, [r9, #3]
 727 057c 1CC09DE5 		ldr	ip, [sp, #28]
 728 0580 04C0C9E5 		strb	ip, [r9, #4]
 729 0584 0280C9E5 		strb	r8, [r9, #2]
 730              	.LM184:
 731 0588 0CE09DE5 		ldr	lr, [sp, #12]
 732 058c 06E0CBE5 		strb	lr, [fp, #6]
 733 0590 14309DE5 		ldr	r3, [sp, #20]
 734 0594 0430CBE5 		strb	r3, [fp, #4]
 735 0598 10509DE5 		ldr	r5, [sp, #16]
 736 059c 0360CBE5 		strb	r6, [fp, #3]
 737 05a0 0550CBE5 		strb	r5, [fp, #5]
 738              	.LM185:
 739 05a4 FEFFFFEB 		bl	aciUpdateCrc16
 740 05a8 38C09FE5 		ldr	ip, .L65+8
 741              	.LM186:
 742 05ac 0120A0E3 		mov	r2, #1
 743 05b0 44108DE2 		add	r1, sp, #68
 744              	.LM187:
 745 05b4 B000CCE1 		strh	r0, [ip, #0]	@ movhi
 746              	.LM188:
 747 05b8 FEFFFFEB 		bl	aciUpdateCrc16
 748              	.LM189:
 749 05bc 1CE09FE5 		ldr	lr, .L65
 750 05c0 00309EE5 		ldr	r3, [lr, #0]
 751              	.LM190:
 752 05c4 1C209FE5 		ldr	r2, .L65+8
 753              	.LM191:
 754 05c8 013083E2 		add	r3, r3, #1
 755              	.LM192:
 756 05cc B000C2E1 		strh	r0, [r2, #0]	@ movhi
 757              	.LM193:
 758 05d0 00308EE5 		str	r3, [lr, #0]
 759              	.LVL43:
 760              	.L64:
 761              	.LM194:
 762 05d4 48D08DE2 		add	sp, sp, #72
 763 05d8 F04FBDE8 		ldmfd	sp!, {r4, r5, r6, r7, r8, r9, sl, fp, lr}
 764 05dc 1EFF2FE1 		bx	lr
 765              	.L66:
 766              		.align	2
 767              	.L65:
 768 05e0 00000000 		.word	aciListCmdCount
 769 05e4 00000000 		.word	aciListCmd
 770 05e8 00000000 		.word	aciMagicCodeCmd
 771              	.LFE6:
 773              		.align	2
 774              		.global	aciPublishVariableInt
 776              	aciPublishVariableInt:
 777              	.LFB5:
 778              	.LM195:
 779              		@ Function supports interworking.
 780              		@ args = 8, pretend = 0, frame = 72
 781              		@ frame_needed = 0, uses_anonymous_args = 0
 782              	.LVL44:
 783 05ec F04F2DE9 		stmfd	sp!, {r4, r5, r6, r7, r8, r9, sl, fp, lr}
 784              	.LCFI8:
 785              	.LM196:
 786 05f0 94519FE5 		ldr	r5, .L71
 787 05f4 00E095E5 		ldr	lr, [r5, #0]
 788              	.LM197:
 789 05f8 90519FE5 		ldr	r5, .L71+4
 790 05fc 8EC18EE0 		add	ip, lr, lr, asl #3
 791              	.LM198:
 792 0600 48D04DE2 		sub	sp, sp, #72
 793              	.LCFI9:
 794              	.LM199:
 795 0604 8CC08EE0 		add	ip, lr, ip, asl #1
 796 0608 05408CE0 		add	r4, ip, r5
 797              	.LM200:
 798 060c 6C709DE5 		ldr	r7, [sp, #108]
 799              	.LM201:
 800 0610 3CC08DE5 		str	ip, [sp, #60]
 801              	.LM202:
 802 0614 46005EE3 		cmp	lr, #70
 803              	.LM203:
 804 0618 23CCA0E1 		mov	ip, r3, lsr #24
 805 061c 23E4A0E1 		mov	lr, r3, lsr #8
 806              	.LM204:
 807 0620 0350A0E1 		mov	r5, r3
 808              	.LM205:
 809 0624 2338A0E1 		mov	r3, r3, lsr #16
 810              	.LVL45:
 811              	.LM206:
 812 0628 70809DE5 		ldr	r8, [sp, #112]
 813              	.LM207:
 814 062c 30C08DE5 		str	ip, [sp, #48]
 815 0630 38E08DE5 		str	lr, [sp, #56]
 816              	.LM208:
 817 0634 20CCA0E1 		mov	ip, r0, lsr #24
 818 0638 20E4A0E1 		mov	lr, r0, lsr #8
 819              	.LM209:
 820 063c 34308DE5 		str	r3, [sp, #52]
 821              	.LM210:
 822 0640 2038A0E1 		mov	r3, r0, lsr #16
 823 0644 0CC08DE5 		str	ip, [sp, #12]
 824 0648 14E08DE5 		str	lr, [sp, #20]
 825              	.LM211:
 826 064c 27CCA0E1 		mov	ip, r7, lsr #24
 827 0650 27E4A0E1 		mov	lr, r7, lsr #8
 828              	.LM212:
 829 0654 10308DE5 		str	r3, [sp, #16]
 830              	.LM213:
 831 0658 2738A0E1 		mov	r3, r7, lsr #16
 832 065c 24C08DE5 		str	ip, [sp, #36]
 833 0660 2CE08DE5 		str	lr, [sp, #44]
 834 0664 28308DE5 		str	r3, [sp, #40]
 835              	.LM214:
 836 0668 28CCA0E1 		mov	ip, r8, lsr #24
 837 066c 28E4A0E1 		mov	lr, r8, lsr #8
 838 0670 2838A0E1 		mov	r3, r8, lsr #16
 839              	.LM215:
 840 0674 B024CDE1 		strh	r2, [sp, #64]	@ movhi
 841 0678 4410CDE5 		strb	r1, [sp, #68]
 842              	.LM216:
 843 067c 0CB084E2 		add	fp, r4, #12
 844              	.LM217:
 845 0680 04A084E2 		add	sl, r4, #4
 846              	.LM218:
 847 0684 089084E2 		add	r9, r4, #8
 848              	.LM219:
 849 0688 0220A0E3 		mov	r2, #2
 850              	.LVL46:
 851 068c 40108DE2 		add	r1, sp, #64
 852              	.LVL47:
 853              	.LM220:
 854 0690 0060A0E1 		mov	r6, r0
 855              	.LM221:
 856 0694 18C08DE5 		str	ip, [sp, #24]
 857 0698 20E08DE5 		str	lr, [sp, #32]
 858 069c 1C308DE5 		str	r3, [sp, #28]
 859              	.LM222:
 860 06a0 3600000A 		beq	.L70
 861              	.LVL48:
 862              	.LM223:
 863 06a4 40C0DDE5 		ldrb	ip, [sp, #64]	@ zero_extendqisi2
 864              	.LVL49:
 865 06a8 41E0DDE5 		ldrb	lr, [sp, #65]	@ zero_extendqisi2
 866 06ac 08C08DE5 		str	ip, [sp, #8]
 867              	.LM224:
 868 06b0 4430DDE5 		ldrb	r3, [sp, #68]	@ zero_extendqisi2
 869              	.LM225:
 870 06b4 D8C09FE5 		ldr	ip, .L71+8
 871              	.LM226:
 872 06b8 08408DE8 		stmia	sp, {r3, lr}	@ phole stm
 873              	.LM227:
 874 06bc B000DCE1 		ldrh	r0, [ip, #0]
 875              	.LM228:
 876 06c0 3CE09DE5 		ldr	lr, [sp, #60]
 877 06c4 08C09DE5 		ldr	ip, [sp, #8]
 878 06c8 C0309FE5 		ldr	r3, .L71+4
 879 06cc 03C0CEE7 		strb	ip, [lr, r3]
 880 06d0 04E09DE5 		ldr	lr, [sp, #4]
 881 06d4 01E0C4E5 		strb	lr, [r4, #1]
 882              	.LM229:
 883 06d8 00309DE5 		ldr	r3, [sp, #0]
 884 06dc 0E30C4E5 		strb	r3, [r4, #14]
 885              	.LM230:
 886 06e0 38C09DE5 		ldr	ip, [sp, #56]
 887 06e4 03C0C4E5 		strb	ip, [r4, #3]
 888 06e8 34E09DE5 		ldr	lr, [sp, #52]
 889 06ec 04E0C4E5 		strb	lr, [r4, #4]
 890 06f0 30309DE5 		ldr	r3, [sp, #48]
 891 06f4 0250C4E5 		strb	r5, [r4, #2]
 892 06f8 0530C4E5 		strb	r3, [r4, #5]
 893              	.LM231:
 894 06fc 24509DE5 		ldr	r5, [sp, #36]
 895              	.LVL50:
 896 0700 0550CAE5 		strb	r5, [sl, #5]
 897 0704 2CC09DE5 		ldr	ip, [sp, #44]
 898 0708 03C0CAE5 		strb	ip, [sl, #3]
 899 070c 28E09DE5 		ldr	lr, [sp, #40]
 900 0710 0270CAE5 		strb	r7, [sl, #2]
 901 0714 04E0CAE5 		strb	lr, [sl, #4]
 902              	.LM232:
 903 0718 18309DE5 		ldr	r3, [sp, #24]
 904 071c 0530C9E5 		strb	r3, [r9, #5]
 905 0720 20509DE5 		ldr	r5, [sp, #32]
 906 0724 0350C9E5 		strb	r5, [r9, #3]
 907 0728 1CC09DE5 		ldr	ip, [sp, #28]
 908 072c 04C0C9E5 		strb	ip, [r9, #4]
 909 0730 0280C9E5 		strb	r8, [r9, #2]
 910              	.LM233:
 911 0734 0CE09DE5 		ldr	lr, [sp, #12]
 912 0738 06E0CBE5 		strb	lr, [fp, #6]
 913 073c 14309DE5 		ldr	r3, [sp, #20]
 914 0740 0430CBE5 		strb	r3, [fp, #4]
 915 0744 10509DE5 		ldr	r5, [sp, #16]
 916 0748 0360CBE5 		strb	r6, [fp, #3]
 917 074c 0550CBE5 		strb	r5, [fp, #5]
 918              	.LM234:
 919 0750 FEFFFFEB 		bl	aciUpdateCrc16
 920 0754 38C09FE5 		ldr	ip, .L71+8
 921              	.LM235:
 922 0758 0120A0E3 		mov	r2, #1
 923 075c 44108DE2 		add	r1, sp, #68
 924              	.LM236:
 925 0760 B000CCE1 		strh	r0, [ip, #0]	@ movhi
 926              	.LM237:
 927 0764 FEFFFFEB 		bl	aciUpdateCrc16
 928              	.LM238:
 929 0768 1CE09FE5 		ldr	lr, .L71
 930 076c 00309EE5 		ldr	r3, [lr, #0]
 931              	.LM239:
 932 0770 1C209FE5 		ldr	r2, .L71+8
 933              	.LM240:
 934 0774 013083E2 		add	r3, r3, #1
 935              	.LM241:
 936 0778 B000C2E1 		strh	r0, [r2, #0]	@ movhi
 937              	.LM242:
 938 077c 00308EE5 		str	r3, [lr, #0]
 939              	.LVL51:
 940              	.L70:
 941              	.LM243:
 942 0780 48D08DE2 		add	sp, sp, #72
 943 0784 F04FBDE8 		ldmfd	sp!, {r4, r5, r6, r7, r8, r9, sl, fp, lr}
 944 0788 1EFF2FE1 		bx	lr
 945              	.L72:
 946              		.align	2
 947              	.L71:
 948 078c 00000000 		.word	aciListVarCount
 949 0790 00000000 		.word	aciListVar
 950 0794 00000000 		.word	aciMagicCodeVar
 951              	.LFE5:
 953              		.align	2
 954              		.global	aciSetReadParafromFlashCallback
 956              	aciSetReadParafromFlashCallback:
 957              	.LFB24:
 958              	.LM244:
 959              		@ Function supports interworking.
 960              		@ args = 0, pretend = 0, frame = 0
 961              		@ frame_needed = 0, uses_anonymous_args = 0
 962              		@ link register save eliminated.
 963              	.LVL52:
 964              	.LM245:
 965 0798 04309FE5 		ldr	r3, .L75
 966              	.LM246:
 967              		@ lr needed for prologue
 968              	.LM247:
 969 079c 000083E5 		str	r0, [r3, #0]
 970              	.LM248:
 971 07a0 1EFF2FE1 		bx	lr
 972              	.L76:
 973              		.align	2
 974              	.L75:
 975 07a4 00000000 		.word	aciReadParafromFlashCallback
 976              	.LFE24:
 978              		.align	2
 979              		.global	aciSetSaveParaCallback
 981              	aciSetSaveParaCallback:
 982              	.LFB25:
 983              	.LM249:
 984              		@ Function supports interworking.
 985              		@ args = 0, pretend = 0, frame = 0
 986              		@ frame_needed = 0, uses_anonymous_args = 0
 987              		@ link register save eliminated.
 988              	.LVL53:
 989              	.LM250:
 990 07a8 04309FE5 		ldr	r3, .L79
 991              	.LM251:
 992              		@ lr needed for prologue
 993              	.LM252:
 994 07ac 000083E5 		str	r0, [r3, #0]
 995              	.LM253:
 996 07b0 1EFF2FE1 		bx	lr
 997              	.L80:
 998              		.align	2
 999              	.L79:
 1000 07b4 00000000 		.word	aciSaveParaCallback
 1001              	.LFE25:
 1003              		.align	2
 1004              		.global	aciSetWriteParatoFlashCallback
 1006              	aciSetWriteParatoFlashCallback:
 1007              	.LFB26:
 1008              	.LM254:
 1009              		@ Function supports interworking.
 1010              		@ args = 0, pretend = 0, frame = 0
 1011              		@ frame_needed = 0, uses_anonymous_args = 0
 1012              		@ link register save eliminated.
 1013              	.LVL54:
 1014              	.LM255:
 1015 07b8 04309FE5 		ldr	r3, .L83
 1016              	.LM256:
 1017              		@ lr needed for prologue
 1018              	.LM257:
 1019 07bc 000083E5 		str	r0, [r3, #0]
 1020              	.LM258:
 1021 07c0 1EFF2FE1 		bx	lr
 1022              	.L84:
 1023              		.align	2
 1024              	.L83:
 1025 07c4 00000000 		.word	aciWriteParatoFlashCallback
 1026              	.LFE26:
 1028              		.align	2
 1029              		.global	aciTxRingBufferAddData
 1031              	aciTxRingBufferAddData:
 1032              	.LFB19:
 1033              	.LM259:
 1034              		@ Function supports interworking.
 1035              		@ args = 0, pretend = 0, frame = 0
 1036              		@ frame_needed = 0, uses_anonymous_args = 0
 1037              	.LVL55:
 1038 07c8 0118A0E1 		mov	r1, r1, asl #16
 1039              	.LVL56:
 1040 07cc F0412DE9 		stmfd	sp!, {r4, r5, r6, r7, r8, lr}
 1041              	.LCFI10:
 1042              	.LM260:
 1043 07d0 2148B0E1 		movs	r4, r1, lsr #16
 1044              	.LVL57:
 1045              	.LM261:
 1046 07d4 0050A0E1 		mov	r5, r0
 1047              	.LM262:
 1048 07d8 0100001A 		bne	.L95
 1049              	.LVL58:
 1050              	.L94:
 1051              	.LM263:
 1052 07dc F041BDE8 		ldmfd	sp!, {r4, r5, r6, r7, r8, lr}
 1053 07e0 1EFF2FE1 		bx	lr
 1054              	.L95:
 1055              	.LM264:
 1056 07e4 FEFFFFEB 		bl	aciTxRingBufferGetFreeSpace
 1057 07e8 000054E1 		cmp	r4, r0
 1058              	.LM265:
 1059 07ec B8609FE5 		ldr	r6, .L96
 1060              	.LM266:
 1061 07f0 0070A0E1 		mov	r7, r0
 1062 07f4 F8FFFF8A 		bhi	.L94
 1063              	.LM267:
 1064 07f8 B030D6E1 		ldrh	r3, [r6, #0]
 1065              	.LM268:
 1066 07fc AC809FE5 		ldr	r8, .L96+4
 1067              	.LM269:
 1068 0800 A0C063E2 		rsb	ip, r3, #160
 1069 0804 04005CE1 		cmp	ip, r4
 1070              	.LM270:
 1071 0808 0510A0E1 		mov	r1, r5
 1072              	.LVL59:
 1073 080c 0420A0E1 		mov	r2, r4
 1074 0810 080083E0 		add	r0, r3, r8
 1075              	.LM271:
 1076 0814 0E0000DA 		ble	.L89
 1077              	.LVL60:
 1078              	.LM272:
 1079 0818 FEFFFFEB 		bl	memcpy
 1080              	.LVL61:
 1081              	.LM273:
 1082 081c B030D6E1 		ldrh	r3, [r6, #0]
 1083 0820 033084E0 		add	r3, r4, r3
 1084 0824 B030C6E1 		strh	r3, [r6, #0]	@ movhi
 1085              	.L91:
 1086              	.LM274:
 1087 0828 9F0057E3 		cmp	r7, #159
 1088 082c 80409FE5 		ldr	r4, .L96+8
 1089              	.LVL62:
 1090 0830 E9FFFF1A 		bne	.L94
 1091 0834 003094E5 		ldr	r3, [r4, #0]
 1092 0838 000053E3 		cmp	r3, #0
 1093 083c E6FFFF0A 		beq	.L94
 1094              	.LBB2:
 1095              	.LM275:
 1096 0840 FEFFFFEB 		bl	aciTxRingBufferGetNextByte
 1097              	.LM276:
 1098 0844 00C094E5 		ldr	ip, [r4, #0]
 1099 0848 0FE0A0E1 		mov	lr, pc
 1100 084c 1CFF2FE1 		bx	ip
 1101 0850 E1FFFFEA 		b	.L94
 1102              	.LVL63:
 1103              	.L89:
 1104              	.LBE2:
 1105              	.LM277:
 1106 0854 0C20A0E1 		mov	r2, ip
 1107              	.LVL64:
 1108 0858 080083E0 		add	r0, r3, r8
 1109 085c 0510A0E1 		mov	r1, r5
 1110 0860 FEFFFFEB 		bl	memcpy
 1111              	.LVL65:
 1112              	.LM278:
 1113 0864 B020D6E1 		ldrh	r2, [r6, #0]
 1114 0868 051062E0 		rsb	r1, r2, r5
 1115 086c 022084E0 		add	r2, r4, r2
 1116 0870 A01081E2 		add	r1, r1, #160
 1117 0874 A02042E2 		sub	r2, r2, #160
 1118 0878 0800A0E1 		mov	r0, r8
 1119 087c FEFFFFEB 		bl	memcpy
 1120              	.LM279:
 1121 0880 B020D6E1 		ldrh	r2, [r6, #0]
 1122 0884 022084E0 		add	r2, r4, r2
 1123 0888 0228A0E1 		mov	r2, r2, asl #16
 1124              	.LM280:
 1125 088c 24109FE5 		ldr	r1, .L96+12
 1126              	.LM281:
 1127 0890 2228A0E1 		mov	r2, r2, lsr #16
 1128              	.LM282:
 1129 0894 910283E0 		umull	r0, r3, r1, r2
 1130 0898 A333A0E1 		mov	r3, r3, lsr #7
 1131 089c 033183E0 		add	r3, r3, r3, asl #2
 1132 08a0 832242E0 		sub	r2, r2, r3, asl #5
 1133 08a4 B020C6E1 		strh	r2, [r6, #0]	@ movhi
 1134 08a8 DEFFFFEA 		b	.L91
 1135              	.L97:
 1136              		.align	2
 1137              	.L96:
 1138 08ac 00000000 		.word	aciTxRingBufferWritePtr
 1139 08b0 00000000 		.word	aciTxRingBuffer
 1140 08b4 00000000 		.word	aciStartTxCallback
 1141 08b8 CDCCCCCC 		.word	-858993459
 1142              	.LFE19:
 1144              		.align	2
 1145              		.global	aciTxSendPacket
 1147              	aciTxSendPacket:
 1148              	.LFB16:
 1149              	.LM283:
 1150              		@ Function supports interworking.
 1151              		@ args = 0, pretend = 0, frame = 16
 1152              		@ frame_needed = 0, uses_anonymous_args = 0
 1153              	.LVL66:
 1154 08bc F0412DE9 		stmfd	sp!, {r4, r5, r6, r7, r8, lr}
 1155              	.LCFI11:
 1156 08c0 10D04DE2 		sub	sp, sp, #16
 1157              	.LCFI12:
 1158              	.LM284:
 1159 08c4 0B508DE2 		add	r5, sp, #11
 1160              	.LM285:
 1161 08c8 0400CDE5 		strb	r0, [sp, #4]
 1162 08cc B020CDE1 		strh	r2, [sp, #0]	@ movhi
 1163 08d0 0160A0E1 		mov	r6, r1
 1164              	.LM286:
 1165 08d4 0320A0E3 		mov	r2, #3
 1166              	.LVL67:
 1167 08d8 B0109FE5 		ldr	r1, .L102
 1168              	.LVL68:
 1169 08dc 0500A0E1 		mov	r0, r5
 1170              	.LVL69:
 1171 08e0 FEFFFFEB 		bl	memcpy
 1172              	.LM287:
 1173 08e4 FF30A0E3 		mov	r3, #255	@ movhi
 1174 08e8 BE30CDE1 		strh	r3, [sp, #14]	@ movhi
 1175              	.LVL70:
 1176              	.LM288:
 1177 08ec FEFFFFEB 		bl	aciTxRingBufferGetFreeSpace
 1178 08f0 B040DDE1 		ldrh	r4, [sp, #0]
 1179 08f4 0A4084E2 		add	r4, r4, #10
 1180 08f8 000054E1 		cmp	r4, r0
 1181              	.LM289:
 1182 08fc 04708DE2 		add	r7, sp, #4
 1183              	.LM290:
 1184 0900 0D80A0E1 		mov	r8, sp
 1185              	.LM291:
 1186 0904 0310A0E3 		mov	r1, #3
 1187 0908 0500A0E1 		mov	r0, r5
 1188              	.LM292:
 1189 090c 1C0000AA 		bge	.L101
 1190              	.LM293:
 1191 0910 FEFFFFEB 		bl	aciTxRingBufferAddData
 1192              	.LM294:
 1193 0914 0700A0E1 		mov	r0, r7
 1194 0918 0110A0E3 		mov	r1, #1
 1195 091c FEFFFFEB 		bl	aciTxRingBufferAddData
 1196              	.LM295:
 1197 0920 0120A0E3 		mov	r2, #1
 1198 0924 0710A0E1 		mov	r1, r7
 1199 0928 BE00DDE1 		ldrh	r0, [sp, #14]
 1200 092c FEFFFFEB 		bl	aciUpdateCrc16
 1201              	.LM296:
 1202 0930 0210A0E3 		mov	r1, #2
 1203              	.LM297:
 1204 0934 BE00CDE1 		strh	r0, [sp, #14]	@ movhi
 1205              	.LM298:
 1206 0938 0D00A0E1 		mov	r0, sp
 1207 093c FEFFFFEB 		bl	aciTxRingBufferAddData
 1208              	.LM299:
 1209 0940 0220A0E3 		mov	r2, #2
 1210 0944 0D10A0E1 		mov	r1, sp
 1211 0948 BE00DDE1 		ldrh	r0, [sp, #14]
 1212 094c FEFFFFEB 		bl	aciUpdateCrc16
 1213              	.LM300:
 1214 0950 B010DDE1 		ldrh	r1, [sp, #0]
 1215              	.LM301:
 1216 0954 BE00CDE1 		strh	r0, [sp, #14]	@ movhi
 1217              	.LM302:
 1218 0958 0600A0E1 		mov	r0, r6
 1219 095c FEFFFFEB 		bl	aciTxRingBufferAddData
 1220              	.LM303:
 1221 0960 0610A0E1 		mov	r1, r6
 1222 0964 BE00DDE1 		ldrh	r0, [sp, #14]
 1223 0968 B020DDE1 		ldrh	r2, [sp, #0]
 1224 096c FEFFFFEB 		bl	aciUpdateCrc16
 1225 0970 10308DE2 		add	r3, sp, #16
 1226 0974 B20063E1 		strh	r0, [r3, #-2]!	@ movhi
 1227              	.LM304:
 1228 0978 0210A0E3 		mov	r1, #2
 1229 097c 0300A0E1 		mov	r0, r3
 1230 0980 FEFFFFEB 		bl	aciTxRingBufferAddData
 1231              	.L101:
 1232              	.LM305:
 1233 0984 10D08DE2 		add	sp, sp, #16
 1234 0988 F041BDE8 		ldmfd	sp!, {r4, r5, r6, r7, r8, lr}
 1235 098c 1EFF2FE1 		bx	lr
 1236              	.L103:
 1237              		.align	2
 1238              	.L102:
 1239 0990 00000000 		.word	C.81.2813
 1240              	.LFE16:
 1242              		.align	2
 1243              		.global	aciSendVar
 1245              	aciSendVar:
 1246              	.LFB8:
 1247              	.LM306:
 1248              		@ Function supports interworking.
 1249              		@ args = 0, pretend = 0, frame = 52
 1250              		@ frame_needed = 0, uses_anonymous_args = 0
 1251 0994 F04F2DE9 		stmfd	sp!, {r4, r5, r6, r7, r8, r9, sl, fp, lr}
 1252              	.LCFI13:
 1253 0998 BC039FE5 		ldr	r0, .L136
 1254 099c BC139FE5 		ldr	r1, .L136+4
 1255 09a0 BC239FE5 		ldr	r2, .L136+8
 1256 09a4 34D04DE2 		sub	sp, sp, #52
 1257              	.LCFI14:
 1258              	.LM307:
 1259 09a8 B8339FE5 		ldr	r3, .L136+12
 1260 09ac 0C008DE5 		str	r0, [sp, #12]
 1261 09b0 10108DE5 		str	r1, [sp, #16]
 1262 09b4 14208DE5 		str	r2, [sp, #20]
 1263 09b8 ACC39FE5 		ldr	ip, .L136+16
 1264 09bc AC039FE5 		ldr	r0, .L136+20
 1265 09c0 AC139FE5 		ldr	r1, .L136+24
 1266 09c4 AC239FE5 		ldr	r2, .L136+28
 1267 09c8 18308DE5 		str	r3, [sp, #24]
 1268 09cc 0030A0E3 		mov	r3, #0
 1269 09d0 1CC08DE5 		str	ip, [sp, #28]
 1270 09d4 20008DE5 		str	r0, [sp, #32]
 1271 09d8 24108DE5 		str	r1, [sp, #36]
 1272 09dc 00208DE5 		str	r2, [sp, #0]
 1273 09e0 08308DE5 		str	r3, [sp, #8]
 1274              	.LVL71:
 1275              	.L105:
 1276              	.LM308:
 1277 09e4 0CC09DE5 		ldr	ip, [sp, #12]
 1278 09e8 B040DCE1 		ldrh	r4, [ip, #0]
 1279 09ec 000054E3 		cmp	r4, #0
 1280 09f0 5400000A 		beq	.L106
 1281              	.LBB3:
 1282              	.LM309:
 1283 09f4 24009DE5 		ldr	r0, [sp, #36]
 1284 09f8 B030D0E1 		ldrh	r3, [r0, #0]
 1285 09fc 000053E3 		cmp	r3, #0
 1286 0a00 8900000A 		beq	.L108
 1287              	.LBB4:
 1288              	.LM310:
 1289 0a04 70339FE5 		ldr	r3, .L136+32
 1290 0a08 08109DE5 		ldr	r1, [sp, #8]
 1291 0a0c 0300D1E7 		ldrb	r0, [r1, r3]	@ zero_extendqisi2
 1292              	.LM311:
 1293 0a10 24209DE5 		ldr	r2, [sp, #36]
 1294              	.LM312:
 1295 0a14 000050E3 		cmp	r0, #0
 1296              	.LM313:
 1297 0a18 0030A0E3 		mov	r3, #0	@ movhi
 1298 0a1c B030C2E1 		strh	r3, [r2, #0]	@ movhi
 1299              	.LM314:
 1300 0a20 00A0A0D3 		movle	sl, #0
 1301 0a24 0183A0D1 		movle	r8, r1, asl #6
 1302 0a28 2B0000DA 		ble	.L112
 1303 0a2c 08C09DE5 		ldr	ip, [sp, #8]
 1304              	.LBB5:
 1305              	.LM315:
 1306 0a30 48539FE5 		ldr	r5, .L136+36
 1307 0a34 019080E2 		add	r9, r0, #1
 1308 0a38 44039FE5 		ldr	r0, .L136+40
 1309 0a3c 0C83A0E1 		mov	r8, ip, asl #6
 1310 0a40 0010D5E5 		ldrb	r1, [r5, #0]	@ zero_extendqisi2
 1311 0a44 0120D5E5 		ldrb	r2, [r5, #1]	@ zero_extendqisi2
 1312              	.LM316:
 1313 0a48 38339FE5 		ldr	r3, .L136+44
 1314 0a4c 000088E0 		add	r0, r8, r0
 1315              	.LM317:
 1316 0a50 00A0A0E3 		mov	sl, #0
 1317 0a54 04008DE5 		str	r0, [sp, #4]
 1318              	.LM318:
 1319 0a58 006093E5 		ldr	r6, [r3, #0]
 1320              	.LM319:
 1321 0a5c 02B481E1 		orr	fp, r1, r2, asl #8
 1322 0a60 0A30A0E1 		mov	r3, sl
 1323 0a64 0170A0E3 		mov	r7, #1
 1324              	.LVL72:
 1325              	.L113:
 1326              	.LM320:
 1327 0a68 033088E0 		add	r3, r8, r3
 1328 0a6c 18139FE5 		ldr	r1, .L136+48
 1329 0a70 8330A0E1 		mov	r3, r3, asl #1
 1330              	.LM321:
 1331 0a74 000056E3 		cmp	r6, #0
 1332              	.LM322:
 1333 0a78 B1E093E1 		ldrh	lr, [r3, r1]
 1334              	.LVL73:
 1335              	.LM323:
 1336 0a7c 120000DA 		ble	.L114
 1337              	.LM324:
 1338 0a80 0E005BE1 		cmp	fp, lr
 1339 0a84 0000A003 		moveq	r0, #0
 1340 0a88 0010A001 		moveq	r1, r0
 1341 0a8c 4D00000A 		beq	.L118
 1342              	.LM325:
 1343 0a90 01C0A0E3 		mov	ip, #1
 1344 0a94 040000EA 		b	.L120
 1345              	.L119:
 1346              	.LM326:
 1347 0a98 0530D3E7 		ldrb	r3, [r3, r5]	@ zero_extendqisi2
 1348 0a9c 0120D2E5 		ldrb	r2, [r2, #1]	@ zero_extendqisi2
 1349 0aa0 023483E1 		orr	r3, r3, r2, asl #8
 1350 0aa4 03005EE1 		cmp	lr, r3
 1351 0aa8 4600000A 		beq	.L118
 1352              	.L120:
 1353 0aac 8C11A0E1 		mov	r1, ip, asl #3
 1354 0ab0 0C3081E0 		add	r3, r1, ip
 1355 0ab4 83308CE0 		add	r3, ip, r3, asl #1
 1356              	.LM327:
 1357 0ab8 06005CE1 		cmp	ip, r6
 1358              	.LM328:
 1359 0abc 0C00A0E1 		mov	r0, ip
 1360              	.LM329:
 1361 0ac0 052083E0 		add	r2, r3, r5
 1362 0ac4 01C08CE2 		add	ip, ip, #1
 1363              	.LM330:
 1364 0ac8 F2FFFF1A 		bne	.L119
 1365              	.L114:
 1366 0acc 0730A0E1 		mov	r3, r7
 1367 0ad0 017087E2 		add	r7, r7, #1
 1368              	.LBE5:
 1369              	.LM331:
 1370 0ad4 090057E1 		cmp	r7, r9
 1371 0ad8 E2FFFF1A 		bne	.L113
 1372              	.LVL74:
 1373              	.L112:
 1374              	.LM332:
 1375 0adc 18009DE5 		ldr	r0, [sp, #24]
 1376 0ae0 9C129FE5 		ldr	r1, .L136+40
 1377 0ae4 B0A0C0E1 		strh	sl, [r0, #0]	@ movhi
 1378 0ae8 A0329FE5 		ldr	r3, .L136+52
 1379 0aec 08009DE5 		ldr	r0, [sp, #8]
 1380 0af0 00C0A0E3 		mov	ip, #0
 1381              	.LVL75:
 1382 0af4 012088E0 		add	r2, r8, r1
 1383 0af8 0CE0A0E1 		mov	lr, ip
 1384              	.LVL76:
 1385 0afc 001483E0 		add	r1, r3, r0, asl #8
 1386 0b00 050000EA 		b	.L121
 1387              	.L135:
 1388              	.LM333:
 1389 0b04 0130D2E4 		ldrb	r3, [r2], #1	@ zero_extendqisi2
 1390 0b08 23318CE0 		add	r3, ip, r3, lsr #2
 1391 0b0c 0338A0E1 		mov	r3, r3, asl #16
 1392              	.LM334:
 1393 0b10 010550E3 		cmp	r0, #4194304
 1394              	.LM335:
 1395 0b14 23C8A0E1 		mov	ip, r3, lsr #16
 1396              	.LM336:
 1397 0b18 0600000A 		beq	.L122
 1398              	.L121:
 1399 0b1c 01308EE2 		add	r3, lr, #1
 1400 0b20 0308A0E1 		mov	r0, r3, asl #16
 1401              	.LM337:
 1402 0b24 003091E5 		ldr	r3, [r1, #0]
 1403 0b28 000053E3 		cmp	r3, #0
 1404              	.LM338:
 1405 0b2c 20E8A0E1 		mov	lr, r0, lsr #16
 1406 0b30 041081E2 		add	r1, r1, #4
 1407              	.LM339:
 1408 0b34 F2FFFF1A 		bne	.L135
 1409              	.L122:
 1410              	.LM340:
 1411 0b38 14109DE5 		ldr	r1, [sp, #20]
 1412              	.LM341:
 1413 0b3c 10209DE5 		ldr	r2, [sp, #16]
 1414              	.LM342:
 1415 0b40 B0C0C1E1 		strh	ip, [r1, #0]	@ movhi
 1416              	.LM343:
 1417 0b44 B0C0C2E1 		strh	ip, [r2, #0]	@ movhi
 1418              	.L106:
 1419              	.LBE4:
 1420              	.LBB6:
 1421              	.LM344:
 1422 0b48 08C09DE5 		ldr	ip, [sp, #8]
 1423              	.LVL77:
 1424 0b4c 00009DE5 		ldr	r0, [sp, #0]
 1425 0b50 0C108DE2 		add	r1, sp, #12
 1426 0b54 060091E8 		ldmia	r1, {r1, r2}	@ phole ldm
 1427 0b58 01C08CE2 		add	ip, ip, #1
 1428 0b5c 010080E2 		add	r0, r0, #1
 1429 0b60 021081E2 		add	r1, r1, #2
 1430 0b64 022082E2 		add	r2, r2, #2
 1431 0b68 14309DE5 		ldr	r3, [sp, #20]
 1432 0b6c 08C08DE5 		str	ip, [sp, #8]
 1433              	.LBE6:
 1434              	.LBE3:
 1435              	.LM345:
 1436 0b70 03005CE3 		cmp	ip, #3
 1437              	.LBB7:
 1438              	.LBB8:
 1439              	.LM346:
 1440 0b74 00008DE5 		str	r0, [sp, #0]
 1441 0b78 18C09DE5 		ldr	ip, [sp, #24]
 1442 0b7c 1C009DE5 		ldr	r0, [sp, #28]
 1443 0b80 0C108DE5 		str	r1, [sp, #12]
 1444 0b84 10208DE5 		str	r2, [sp, #16]
 1445 0b88 20108DE2 		add	r1, sp, #32
 1446 0b8c 060091E8 		ldmia	r1, {r1, r2}	@ phole ldm
 1447 0b90 023083E2 		add	r3, r3, #2
 1448 0b94 02C08CE2 		add	ip, ip, #2
 1449 0b98 040080E2 		add	r0, r0, #4
 1450 0b9c 231E81E2 		add	r1, r1, #560
 1451 0ba0 022082E2 		add	r2, r2, #2
 1452 0ba4 14308DE5 		str	r3, [sp, #20]
 1453 0ba8 18C08DE5 		str	ip, [sp, #24]
 1454 0bac 1C008DE5 		str	r0, [sp, #28]
 1455 0bb0 20108DE5 		str	r1, [sp, #32]
 1456 0bb4 24208DE5 		str	r2, [sp, #36]
 1457              	.LBE8:
 1458              	.LBE7:
 1459              	.LM347:
 1460 0bb8 89FFFF1A 		bne	.L105
 1461              	.LM348:
 1462 0bbc 34D08DE2 		add	sp, sp, #52
 1463 0bc0 F04FBDE8 		ldmfd	sp!, {r4, r5, r6, r7, r8, r9, sl, fp, lr}
 1464 0bc4 1EFF2FE1 		bx	lr
 1465              	.LVL78:
 1466              	.L118:
 1467              	.LBB9:
 1468              	.LBB10:
 1469              	.LBB11:
 1470              	.LM349:
 1471 0bc8 001081E0 		add	r1, r1, r0
 1472 0bcc 811080E0 		add	r1, r0, r1, asl #1
 1473 0bd0 051081E0 		add	r1, r1, r5
 1474 0bd4 0C2081E2 		add	r2, r1, #12
 1475 0bd8 0400D2E5 		ldrb	r0, [r2, #4]	@ zero_extendqisi2
 1476 0bdc 0330D2E5 		ldrb	r3, [r2, #3]	@ zero_extendqisi2
 1477 0be0 0540D2E5 		ldrb	r4, [r2, #5]	@ zero_extendqisi2
 1478 0be4 003483E1 		orr	r3, r3, r0, asl #8
 1479              	.LM350:
 1480 0be8 01C08AE2 		add	ip, sl, #1
 1481              	.LM351:
 1482 0bec 0600D2E5 		ldrb	r0, [r2, #6]	@ zero_extendqisi2
 1483              	.LM352:
 1484 0bf0 0EE0D1E5 		ldrb	lr, [r1, #14]	@ zero_extendqisi2
 1485              	.LVL79:
 1486 0bf4 04209DE5 		ldr	r2, [sp, #4]
 1487 0bf8 0CC8A0E1 		mov	ip, ip, asl #16
 1488 0bfc 0AE0C2E7 		strb	lr, [r2, sl]
 1489              	.LM353:
 1490 0c00 043883E1 		orr	r3, r3, r4, asl #16
 1491 0c04 0A2088E0 		add	r2, r8, sl
 1492              	.LM354:
 1493 0c08 2CA8A0E1 		mov	sl, ip, lsr #16
 1494              	.LM355:
 1495 0c0c 7CC19FE5 		ldr	ip, .L136+52
 1496 0c10 003C83E1 		orr	r3, r3, r0, asl #24
 1497 0c14 02318CE7 		str	r3, [ip, r2, asl #2]
 1498              	.LM356:
 1499 0c18 0730A0E1 		mov	r3, r7
 1500 0c1c 017087E2 		add	r7, r7, #1
 1501              	.LBE11:
 1502              	.LM357:
 1503 0c20 090057E1 		cmp	r7, r9
 1504 0c24 8FFFFF1A 		bne	.L113
 1505 0c28 ABFFFFEA 		b	.L112
 1506              	.LVL80:
 1507              	.L108:
 1508              	.LBE10:
 1509              	.LM358:
 1510 0c2c 18C09DE5 		ldr	ip, [sp, #24]
 1511 0c30 B030DCE1 		ldrh	r3, [ip, #0]
 1512 0c34 000053E3 		cmp	r3, #0
 1513 0c38 C2FFFF0A 		beq	.L106
 1514 0c3c FEFFFFEB 		bl	aciTxRingBufferGetFreeSpace
 1515              	.LVL81:
 1516 0c40 10109DE5 		ldr	r1, [sp, #16]
 1517 0c44 B050D1E1 		ldrh	r5, [r1, #0]
 1518 0c48 0A3085E2 		add	r3, r5, #10
 1519 0c4c 000053E1 		cmp	r3, r0
 1520 0c50 BCFFFFAA 		bge	.L106
 1521 0c54 38319FE5 		ldr	r3, .L136+56
 1522 0c58 0020D3E5 		ldrb	r2, [r3, #0]	@ zero_extendqisi2
 1523 0c5c 000052E3 		cmp	r2, #0
 1524 0c60 B8FFFF1A 		bne	.L106
 1525 0c64 1C209DE5 		ldr	r2, [sp, #28]
 1526 0c68 003092E5 		ldr	r3, [r2, #0]
 1527 0c6c 030054E1 		cmp	r4, r3
 1528 0c70 B4FFFF2A 		bcs	.L106
 1529              	.LBB12:
 1530              	.LM359:
 1531 0c74 2B408DE2 		add	r4, sp, #43
 1532 0c78 0320A0E3 		mov	r2, #3
 1533 0c7c 14119FE5 		ldr	r1, .L136+60
 1534 0c80 0400A0E1 		mov	r0, r4
 1535 0c84 FEFFFFEB 		bl	memcpy
 1536              	.LM360:
 1537 0c88 08C09DE5 		ldr	ip, [sp, #8]
 1538 0c8c 70304CE2 		sub	r3, ip, #112
 1539 0c90 3330CDE5 		strb	r3, [sp, #51]
 1540              	.LM361:
 1541 0c94 1C309DE5 		ldr	r3, [sp, #28]
 1542 0c98 01C0A0E3 		mov	ip, #1
 1543              	.LM362:
 1544 0c9c 012085E2 		add	r2, r5, #1
 1545              	.LM363:
 1546 0ca0 00C083E5 		str	ip, [r3, #0]
 1547              	.LM364:
 1548 0ca4 0400A0E1 		mov	r0, r4
 1549              	.LM365:
 1550 0ca8 BE22CDE1 		strh	r2, [sp, #46]	@ movhi
 1551              	.LM366:
 1552 0cac 33408DE2 		add	r4, sp, #51
 1553              	.LM367:
 1554 0cb0 FF20A0E3 		mov	r2, #255	@ movhi
 1555              	.LM368:
 1556 0cb4 0310A0E3 		mov	r1, #3
 1557              	.LM369:
 1558 0cb8 B023CDE1 		strh	r2, [sp, #48]	@ movhi
 1559              	.LM370:
 1560 0cbc FEFFFFEB 		bl	aciTxRingBufferAddData
 1561              	.LM371:
 1562 0cc0 0400A0E1 		mov	r0, r4
 1563 0cc4 0110A0E3 		mov	r1, #1
 1564 0cc8 FEFFFFEB 		bl	aciTxRingBufferAddData
 1565              	.LM372:
 1566 0ccc 0410A0E1 		mov	r1, r4
 1567 0cd0 0120A0E3 		mov	r2, #1
 1568 0cd4 B003DDE1 		ldrh	r0, [sp, #48]
 1569 0cd8 FEFFFFEB 		bl	aciUpdateCrc16
 1570              	.LM373:
 1571 0cdc 2E408DE2 		add	r4, sp, #46
 1572              	.LM374:
 1573 0ce0 B003CDE1 		strh	r0, [sp, #48]	@ movhi
 1574              	.LM375:
 1575 0ce4 0210A0E3 		mov	r1, #2
 1576 0ce8 0400A0E1 		mov	r0, r4
 1577 0cec FEFFFFEB 		bl	aciTxRingBufferAddData
 1578              	.LM376:
 1579 0cf0 0410A0E1 		mov	r1, r4
 1580 0cf4 0220A0E3 		mov	r2, #2
 1581 0cf8 B003DDE1 		ldrh	r0, [sp, #48]
 1582 0cfc FEFFFFEB 		bl	aciUpdateCrc16
 1583              	.LM377:
 1584 0d00 0110A0E3 		mov	r1, #1
 1585              	.LM378:
 1586 0d04 B003CDE1 		strh	r0, [sp, #48]	@ movhi
 1587              	.LM379:
 1588 0d08 00009DE5 		ldr	r0, [sp, #0]
 1589 0d0c FEFFFFEB 		bl	aciTxRingBufferAddData
 1590              	.LM380:
 1591 0d10 0120A0E3 		mov	r2, #1
 1592 0d14 00109DE5 		ldr	r1, [sp, #0]
 1593 0d18 B003DDE1 		ldrh	r0, [sp, #48]
 1594 0d1c FEFFFFEB 		bl	aciUpdateCrc16
 1595 0d20 B003CDE1 		strh	r0, [sp, #48]	@ movhi
 1596              	.LM381:
 1597 0d24 14009DE5 		ldr	r0, [sp, #20]
 1598 0d28 B010D0E1 		ldrh	r1, [r0, #0]
 1599 0d2c 20009DE5 		ldr	r0, [sp, #32]
 1600 0d30 FEFFFFEB 		bl	aciTxRingBufferAddData
 1601              	.LM382:
 1602 0d34 14309DE5 		ldr	r3, [sp, #20]
 1603 0d38 20109DE5 		ldr	r1, [sp, #32]
 1604 0d3c B003DDE1 		ldrh	r0, [sp, #48]
 1605 0d40 B020D3E1 		ldrh	r2, [r3, #0]
 1606 0d44 FEFFFFEB 		bl	aciUpdateCrc16
 1607              	.LM383:
 1608 0d48 0210A0E3 		mov	r1, #2
 1609              	.LM384:
 1610 0d4c B003CDE1 		strh	r0, [sp, #48]	@ movhi
 1611              	.LM385:
 1612 0d50 30008DE2 		add	r0, sp, #48
 1613 0d54 FEFFFFEB 		bl	aciTxRingBufferAddData
 1614 0d58 7AFFFFEA 		b	.L106
 1615              	.L137:
 1616              		.align	2
 1617              	.L136:
 1618 0d5c 00000000 		.word	aciVarPacketTransmissionRate
 1619 0d60 00000000 		.word	aciVarPacketCurrentSize
 1620 0d64 00000000 		.word	aciVarPacketContentBufferLength
 1621 0d68 00000000 		.word	aciVarPacketNumberOfVars
 1622 0d6c 00000000 		.word	aciEngineRateCounter
 1623 0d70 00000000 		.word	aciVarPacketContentBuffer
 1624 0d74 00000000 		.word	aciVarPacketUpdated
 1625 0d78 00000000 		.word	aciVarPacketMagicCode
 1626 0d7c 00000000 		.word	aciVarPacketSelectLength
 1627 0d80 00000000 		.word	aciListVar
 1628 0d84 00000000 		.word	aciVarPacketTypeList
 1629 0d88 00000000 		.word	aciListVarCount
 1630 0d8c 00000000 		.word	aciVarPacketSelect
 1631 0d90 00000000 		.word	aciVarPacketPtrList
 1632 0d94 00000000 		.word	aciInhibitPacketTransmission
 1633 0d98 03000000 		.word	C.30.2276
 1634              	.LBE12:
 1635              	.LBE9:
 1636              	.LFE8:
 1638              		.align	2
 1639              		.global	aciSyncPar
 1641              	aciSyncPar:
 1642              	.LFB11:
 1643              	.LM386:
 1644              		@ Function supports interworking.
 1645              		@ args = 0, pretend = 0, frame = 4
 1646              		@ frame_needed = 0, uses_anonymous_args = 0
 1647 0d9c F04F2DE9 		stmfd	sp!, {r4, r5, r6, r7, r8, r9, sl, fp, lr}
 1648              	.LCFI15:
 1649 0da0 6C219FE5 		ldr	r2, .L157
 1650 0da4 04D04DE2 		sub	sp, sp, #4
 1651              	.LCFI16:
 1652              	.LM387:
 1653 0da8 0080A0E3 		mov	r8, #0
 1654 0dac 00208DE5 		str	r2, [sp, #0]
 1655 0db0 60919FE5 		ldr	r9, .L157+4
 1656 0db4 08B0A0E1 		mov	fp, r8
 1657              	.LVL82:
 1658              	.L139:
 1659              	.LM388:
 1660 0db8 00209DE5 		ldr	r2, [sp, #0]
 1661 0dbc 0030D2E5 		ldrb	r3, [r2, #0]	@ zero_extendqisi2
 1662 0dc0 000053E3 		cmp	r3, #0
 1663 0dc4 2B00000A 		beq	.L140
 1664              	.LBB13:
 1665              	.LM389:
 1666 0dc8 0060D9E5 		ldrb	r6, [r9, #0]	@ zero_extendqisi2
 1667 0dcc 000056E3 		cmp	r6, #0
 1668 0dd0 0030A0C3 		movgt	r3, #0
 1669 0dd4 0370A0C1 		movgt	r7, r3
 1670 0dd8 01A0A0C3 		movgt	sl, #1
 1671 0ddc 220000DA 		ble	.L142
 1672              	.L144:
 1673              	.LM390:
 1674 0de0 34219FE5 		ldr	r2, .L157+8
 1675 0de4 005092E5 		ldr	r5, [r2, #0]
 1676 0de8 000055E3 		cmp	r5, #0
 1677 0dec 1A0000DA 		ble	.L148
 1678              	.LM391:
 1679 0df0 28C19FE5 		ldr	ip, .L157+12
 1680 0df4 082383E0 		add	r2, r3, r8, asl #6
 1681 0df8 24319FE5 		ldr	r3, .L157+16
 1682 0dfc 8220A0E1 		mov	r2, r2, asl #1
 1683 0e00 0010DCE5 		ldrb	r1, [ip, #0]	@ zero_extendqisi2
 1684 0e04 0100DCE5 		ldrb	r0, [ip, #1]	@ zero_extendqisi2
 1685 0e08 B3E092E1 		ldrh	lr, [r2, r3]
 1686 0e0c 001481E1 		orr	r1, r1, r0, asl #8
 1687 0e10 0E0051E1 		cmp	r1, lr
 1688 0e14 0010A003 		moveq	r1, #0
 1689 0e18 0140A001 		moveq	r4, r1
 1690 0e1c 2000000A 		beq	.L147
 1691              	.LM392:
 1692 0e20 0100A0E3 		mov	r0, #1
 1693 0e24 040000EA 		b	.L146
 1694              	.L145:
 1695              	.LM393:
 1696 0e28 0C30D3E7 		ldrb	r3, [r3, ip]	@ zero_extendqisi2
 1697 0e2c 0120D2E5 		ldrb	r2, [r2, #1]	@ zero_extendqisi2
 1698 0e30 023483E1 		orr	r3, r3, r2, asl #8
 1699 0e34 0E0053E1 		cmp	r3, lr
 1700 0e38 1900000A 		beq	.L147
 1701              	.L146:
 1702 0e3c 8041A0E1 		mov	r4, r0, asl #3
 1703              	.LM394:
 1704 0e40 0010A0E1 		mov	r1, r0
 1705              	.LM395:
 1706 0e44 003084E0 		add	r3, r4, r0
 1707 0e48 833080E0 		add	r3, r0, r3, asl #1
 1708              	.LM396:
 1709 0e4c 010055E1 		cmp	r5, r1
 1710              	.LM397:
 1711 0e50 0C2083E0 		add	r2, r3, ip
 1712              	.LM398:
 1713 0e54 010080E2 		add	r0, r0, #1
 1714              	.LM399:
 1715 0e58 F2FFFF1A 		bne	.L145
 1716              	.L148:
 1717              	.LM400:
 1718 0e5c 06005AE1 		cmp	sl, r6
 1719              	.LM401:
 1720 0e60 0A30A0E1 		mov	r3, sl
 1721 0e64 01A08AE2 		add	sl, sl, #1
 1722              	.LM402:
 1723 0e68 DCFFFFBA 		blt	.L144
 1724              	.L142:
 1725              	.LM403:
 1726 0e6c 00209DE5 		ldr	r2, [sp, #0]
 1727 0e70 0030A0E3 		mov	r3, #0
 1728 0e74 0030C2E5 		strb	r3, [r2, #0]
 1729              	.L140:
 1730 0e78 00309DE5 		ldr	r3, [sp, #0]
 1731 0e7c 018088E2 		add	r8, r8, #1
 1732 0e80 013083E2 		add	r3, r3, #1
 1733              	.LBE13:
 1734              	.LM404:
 1735 0e84 030058E3 		cmp	r8, #3
 1736              	.LBB14:
 1737              	.LM405:
 1738 0e88 00308DE5 		str	r3, [sp, #0]
 1739 0e8c 019089E2 		add	r9, r9, #1
 1740 0e90 19BE8BE2 		add	fp, fp, #400
 1741              	.LBE14:
 1742              	.LM406:
 1743 0e94 C7FFFF1A 		bne	.L139
 1744              	.LM407:
 1745 0e98 04D08DE2 		add	sp, sp, #4
 1746 0e9c F04FBDE8 		ldmfd	sp!, {r4, r5, r6, r7, r8, r9, sl, fp, lr}
 1747 0ea0 1EFF2FE1 		bx	lr
 1748              	.L147:
 1749              	.LBB15:
 1750              	.LM408:
 1751 0ea4 014084E0 		add	r4, r4, r1
 1752 0ea8 844081E0 		add	r4, r1, r4, asl #1
 1753 0eac 0C4084E0 		add	r4, r4, ip
 1754 0eb0 0C3084E2 		add	r3, r4, #12
 1755 0eb4 0420D3E5 		ldrb	r2, [r3, #4]	@ zero_extendqisi2
 1756 0eb8 0300D3E5 		ldrb	r0, [r3, #3]	@ zero_extendqisi2
 1757 0ebc 05C0D3E5 		ldrb	ip, [r3, #5]	@ zero_extendqisi2
 1758 0ec0 06E0D3E5 		ldrb	lr, [r3, #6]	@ zero_extendqisi2
 1759 0ec4 020480E1 		orr	r0, r0, r2, asl #8
 1760 0ec8 58309FE5 		ldr	r3, .L157+20
 1761 0ecc 0E20D4E5 		ldrb	r2, [r4, #14]	@ zero_extendqisi2
 1762 0ed0 0718A0E1 		mov	r1, r7, asl #16
 1763 0ed4 0C0880E1 		orr	r0, r0, ip, asl #16
 1764 0ed8 41188BE0 		add	r1, fp, r1, asr #16
 1765 0edc 031081E0 		add	r1, r1, r3
 1766 0ee0 0E0C80E1 		orr	r0, r0, lr, asl #24
 1767 0ee4 2221A0E1 		mov	r2, r2, lsr #2
 1768 0ee8 FEFFFFEB 		bl	memcpy
 1769              	.LM409:
 1770 0eec 0E30D4E5 		ldrb	r3, [r4, #14]	@ zero_extendqisi2
 1771 0ef0 0060D9E5 		ldrb	r6, [r9, #0]	@ zero_extendqisi2
 1772 0ef4 233187E0 		add	r3, r7, r3, lsr #2
 1773 0ef8 0338A0E1 		mov	r3, r3, asl #16
 1774              	.LM410:
 1775 0efc 06005AE1 		cmp	sl, r6
 1776              	.LM411:
 1777 0f00 2378A0E1 		mov	r7, r3, lsr #16
 1778              	.LM412:
 1779 0f04 0A30A0E1 		mov	r3, sl
 1780 0f08 01A08AE2 		add	sl, sl, #1
 1781              	.LM413:
 1782 0f0c B3FFFFBA 		blt	.L144
 1783 0f10 D5FFFFEA 		b	.L142
 1784              	.L158:
 1785              		.align	2
 1786              	.L157:
 1787 0f14 00000000 		.word	aciParamPacketReceived
 1788 0f18 00000000 		.word	aciParPacketSelectLength
 1789 0f1c 00000000 		.word	aciListParCount
 1790 0f20 00000000 		.word	aciListPar
 1791 0f24 00000000 		.word	aciParPacketSelect
 1792 0f28 00000000 		.word	aciParPacketContentBuffer
 1793              	.LBE15:
 1794              	.LFE11:
 1796              		.align	2
 1797              		.global	aciSyncCmd
 1799              	aciSyncCmd:
 1800              	.LFB10:
 1801              	.LM414:
 1802              		@ Function supports interworking.
 1803              		@ args = 0, pretend = 0, frame = 4
 1804              		@ frame_needed = 0, uses_anonymous_args = 0
 1805 0f2c F04F2DE9 		stmfd	sp!, {r4, r5, r6, r7, r8, r9, sl, fp, lr}
 1806              	.LCFI17:
 1807 0f30 6C219FE5 		ldr	r2, .L178
 1808 0f34 04D04DE2 		sub	sp, sp, #4
 1809              	.LCFI18:
 1810              	.LM415:
 1811 0f38 0080A0E3 		mov	r8, #0
 1812 0f3c 00208DE5 		str	r2, [sp, #0]
 1813 0f40 60919FE5 		ldr	r9, .L178+4
 1814 0f44 08B0A0E1 		mov	fp, r8
 1815              	.LVL83:
 1816              	.L160:
 1817              	.LM416:
 1818 0f48 00209DE5 		ldr	r2, [sp, #0]
 1819 0f4c 0030D2E5 		ldrb	r3, [r2, #0]	@ zero_extendqisi2
 1820 0f50 000053E3 		cmp	r3, #0
 1821 0f54 2B00000A 		beq	.L161
 1822              	.LBB16:
 1823              	.LM417:
 1824 0f58 0060D9E5 		ldrb	r6, [r9, #0]	@ zero_extendqisi2
 1825 0f5c 000056E3 		cmp	r6, #0
 1826 0f60 0030A0C3 		movgt	r3, #0
 1827 0f64 0370A0C1 		movgt	r7, r3
 1828 0f68 01A0A0C3 		movgt	sl, #1
 1829 0f6c 220000DA 		ble	.L163
 1830              	.L165:
 1831              	.LM418:
 1832 0f70 34219FE5 		ldr	r2, .L178+8
 1833 0f74 005092E5 		ldr	r5, [r2, #0]
 1834 0f78 000055E3 		cmp	r5, #0
 1835 0f7c 1A0000DA 		ble	.L169
 1836              	.LM419:
 1837 0f80 28C19FE5 		ldr	ip, .L178+12
 1838 0f84 082383E0 		add	r2, r3, r8, asl #6
 1839 0f88 24319FE5 		ldr	r3, .L178+16
 1840 0f8c 8220A0E1 		mov	r2, r2, asl #1
 1841 0f90 0010DCE5 		ldrb	r1, [ip, #0]	@ zero_extendqisi2
 1842 0f94 0100DCE5 		ldrb	r0, [ip, #1]	@ zero_extendqisi2
 1843 0f98 B3E092E1 		ldrh	lr, [r2, r3]
 1844 0f9c 001481E1 		orr	r1, r1, r0, asl #8
 1845 0fa0 0E0051E1 		cmp	r1, lr
 1846 0fa4 0010A003 		moveq	r1, #0
 1847 0fa8 0140A001 		moveq	r4, r1
 1848 0fac 2000000A 		beq	.L168
 1849              	.LM420:
 1850 0fb0 0100A0E3 		mov	r0, #1
 1851 0fb4 040000EA 		b	.L167
 1852              	.L166:
 1853              	.LM421:
 1854 0fb8 0C30D3E7 		ldrb	r3, [r3, ip]	@ zero_extendqisi2
 1855 0fbc 0120D2E5 		ldrb	r2, [r2, #1]	@ zero_extendqisi2
 1856 0fc0 023483E1 		orr	r3, r3, r2, asl #8
 1857 0fc4 0E0053E1 		cmp	r3, lr
 1858 0fc8 1900000A 		beq	.L168
 1859              	.L167:
 1860 0fcc 8041A0E1 		mov	r4, r0, asl #3
 1861              	.LM422:
 1862 0fd0 0010A0E1 		mov	r1, r0
 1863              	.LM423:
 1864 0fd4 003084E0 		add	r3, r4, r0
 1865 0fd8 833080E0 		add	r3, r0, r3, asl #1
 1866              	.LM424:
 1867 0fdc 010055E1 		cmp	r5, r1
 1868              	.LM425:
 1869 0fe0 0C2083E0 		add	r2, r3, ip
 1870              	.LM426:
 1871 0fe4 010080E2 		add	r0, r0, #1
 1872              	.LM427:
 1873 0fe8 F2FFFF1A 		bne	.L166
 1874              	.L169:
 1875              	.LM428:
 1876 0fec 06005AE1 		cmp	sl, r6
 1877              	.LM429:
 1878 0ff0 0A30A0E1 		mov	r3, sl
 1879 0ff4 01A08AE2 		add	sl, sl, #1
 1880              	.LM430:
 1881 0ff8 DCFFFFBA 		blt	.L165
 1882              	.L163:
 1883              	.LM431:
 1884 0ffc 00209DE5 		ldr	r2, [sp, #0]
 1885 1000 0030A0E3 		mov	r3, #0
 1886 1004 0030C2E5 		strb	r3, [r2, #0]
 1887              	.L161:
 1888 1008 00309DE5 		ldr	r3, [sp, #0]
 1889 100c 018088E2 		add	r8, r8, #1
 1890 1010 013083E2 		add	r3, r3, #1
 1891              	.LBE16:
 1892              	.LM432:
 1893 1014 030058E3 		cmp	r8, #3
 1894              	.LBB17:
 1895              	.LM433:
 1896 1018 00308DE5 		str	r3, [sp, #0]
 1897 101c 019089E2 		add	r9, r9, #1
 1898 1020 19BE8BE2 		add	fp, fp, #400
 1899              	.LBE17:
 1900              	.LM434:
 1901 1024 C7FFFF1A 		bne	.L160
 1902              	.LM435:
 1903 1028 04D08DE2 		add	sp, sp, #4
 1904 102c F04FBDE8 		ldmfd	sp!, {r4, r5, r6, r7, r8, r9, sl, fp, lr}
 1905 1030 1EFF2FE1 		bx	lr
 1906              	.L168:
 1907              	.LBB18:
 1908              	.LM436:
 1909 1034 014084E0 		add	r4, r4, r1
 1910 1038 844081E0 		add	r4, r1, r4, asl #1
 1911 103c 0C4084E0 		add	r4, r4, ip
 1912 1040 0C3084E2 		add	r3, r4, #12
 1913 1044 0420D3E5 		ldrb	r2, [r3, #4]	@ zero_extendqisi2
 1914 1048 0300D3E5 		ldrb	r0, [r3, #3]	@ zero_extendqisi2
 1915 104c 05C0D3E5 		ldrb	ip, [r3, #5]	@ zero_extendqisi2
 1916 1050 06E0D3E5 		ldrb	lr, [r3, #6]	@ zero_extendqisi2
 1917 1054 020480E1 		orr	r0, r0, r2, asl #8
 1918 1058 58309FE5 		ldr	r3, .L178+20
 1919 105c 0E20D4E5 		ldrb	r2, [r4, #14]	@ zero_extendqisi2
 1920 1060 0718A0E1 		mov	r1, r7, asl #16
 1921 1064 0C0880E1 		orr	r0, r0, ip, asl #16
 1922 1068 41188BE0 		add	r1, fp, r1, asr #16
 1923 106c 031081E0 		add	r1, r1, r3
 1924 1070 0E0C80E1 		orr	r0, r0, lr, asl #24
 1925 1074 2221A0E1 		mov	r2, r2, lsr #2
 1926 1078 FEFFFFEB 		bl	memcpy
 1927              	.LM437:
 1928 107c 0E30D4E5 		ldrb	r3, [r4, #14]	@ zero_extendqisi2
 1929 1080 0060D9E5 		ldrb	r6, [r9, #0]	@ zero_extendqisi2
 1930 1084 233187E0 		add	r3, r7, r3, lsr #2
 1931 1088 0338A0E1 		mov	r3, r3, asl #16
 1932              	.LM438:
 1933 108c 06005AE1 		cmp	sl, r6
 1934              	.LM439:
 1935 1090 2378A0E1 		mov	r7, r3, lsr #16
 1936              	.LM440:
 1937 1094 0A30A0E1 		mov	r3, sl
 1938 1098 01A08AE2 		add	sl, sl, #1
 1939              	.LM441:
 1940 109c B3FFFFBA 		blt	.L165
 1941 10a0 D5FFFFEA 		b	.L163
 1942              	.L179:
 1943              		.align	2
 1944              	.L178:
 1945 10a4 00000000 		.word	aciCmdPacketReceived
 1946 10a8 00000000 		.word	aciCmdPacketSelectLength
 1947 10ac 00000000 		.word	aciListCmdCount
 1948 10b0 00000000 		.word	aciListCmd
 1949 10b4 00000000 		.word	aciCmdPacketSelect
 1950 10b8 00000000 		.word	aciCmdPacketContentBuffer
 1951              	.LBE18:
 1952              	.LFE10:
 1954              		.align	2
 1955              		.global	aciSyncVar
 1957              	aciSyncVar:
 1958              	.LFB9:
 1959              	.LM442:
 1960              		@ Function supports interworking.
 1961              		@ args = 0, pretend = 0, frame = 0
 1962              		@ frame_needed = 0, uses_anonymous_args = 0
 1963 10bc F04F2DE9 		stmfd	sp!, {r4, r5, r6, r7, r8, r9, sl, fp, lr}
 1964              	.LCFI19:
 1965              	.LM443:
 1966 10c0 0090A0E3 		mov	r9, #0
 1967 10c4 84809FE5 		ldr	r8, .L191
 1968 10c8 09A0A0E1 		mov	sl, r9
 1969              	.LVL84:
 1970              	.L181:
 1971              	.LM444:
 1972 10cc B030D8E1 		ldrh	r3, [r8, #0]
 1973 10d0 000053E3 		cmp	r3, #0
 1974 10d4 1600000A 		beq	.L182
 1975              	.LBB19:
 1976              	.LM445:
 1977 10d8 150000DA 		ble	.L182
 1978 10dc 70309FE5 		ldr	r3, .L191+4
 1979 10e0 70209FE5 		ldr	r2, .L191+8
 1980 10e4 0060A0E3 		mov	r6, #0
 1981 10e8 6CB09FE5 		ldr	fp, .L191+12
 1982 10ec 097483E0 		add	r7, r3, r9, asl #8
 1983 10f0 094382E0 		add	r4, r2, r9, asl #6
 1984 10f4 0650A0E1 		mov	r5, r6
 1985              	.L185:
 1986              	.LM446:
 1987 10f8 0020D4E5 		ldrb	r2, [r4, #0]	@ zero_extendqisi2
 1988 10fc 0508A0E1 		mov	r0, r5, asl #16
 1989 1100 40088AE0 		add	r0, sl, r0, asr #16
 1990 1104 2221A0E1 		mov	r2, r2, lsr #2
 1991 1108 00008BE0 		add	r0, fp, r0
 1992 110c 041097E4 		ldr	r1, [r7], #4
 1993 1110 FEFFFFEB 		bl	memcpy
 1994              	.LM447:
 1995 1114 0130D4E4 		ldrb	r3, [r4], #1	@ zero_extendqisi2
 1996              	.LM448:
 1997 1118 B020D8E1 		ldrh	r2, [r8, #0]
 1998              	.LM449:
 1999 111c 233185E0 		add	r3, r5, r3, lsr #2
 2000              	.LM450:
 2001 1120 016086E2 		add	r6, r6, #1
 2002              	.LM451:
 2003 1124 0338A0E1 		mov	r3, r3, asl #16
 2004              	.LM452:
 2005 1128 060052E1 		cmp	r2, r6
 2006              	.LM453:
 2007 112c 2358A0E1 		mov	r5, r3, lsr #16
 2008              	.LM454:
 2009 1130 F0FFFFCA 		bgt	.L185
 2010              	.L182:
 2011 1134 019089E2 		add	r9, r9, #1
 2012              	.LBE19:
 2013              	.LM455:
 2014 1138 030059E3 		cmp	r9, #3
 2015              	.LBB20:
 2016              	.LM456:
 2017 113c 028088E2 		add	r8, r8, #2
 2018 1140 23AE8AE2 		add	sl, sl, #560
 2019              	.LBE20:
 2020              	.LM457:
 2021 1144 E0FFFF1A 		bne	.L181
 2022              	.LM458:
 2023 1148 F04FBDE8 		ldmfd	sp!, {r4, r5, r6, r7, r8, r9, sl, fp, lr}
 2024 114c 1EFF2FE1 		bx	lr
 2025              	.L192:
 2026              		.align	2
 2027              	.L191:
 2028 1150 00000000 		.word	aciVarPacketNumberOfVars
 2029 1154 00000000 		.word	aciVarPacketPtrList
 2030 1158 00000000 		.word	aciVarPacketTypeList
 2031 115c 00000000 		.word	aciVarPacketContentBuffer
 2032              	.LFE9:
 2034              		.align	2
 2035              		.global	aciRxHandleMessage
 2037              	aciRxHandleMessage:
 2038              	.LFB13:
 2039              	.LM459:
 2040              		@ Function supports interworking.
 2041              		@ args = 0, pretend = 0, frame = 1752
 2042              		@ frame_needed = 1, uses_anonymous_args = 0
 2043              	.LVL85:
 2044 1160 0DC0A0E1 		mov	ip, sp
 2045              	.LCFI20:
 2046 1164 F0DF2DE9 		stmfd	sp!, {r4, r5, r6, r7, r8, r9, sl, fp, ip, lr, pc}
 2047              	.LCFI21:
 2048 1168 FF5000E2 		and	r5, r0, #255
 2049 116c 6DDE4DE2 		sub	sp, sp, #1744
 2050              	.LCFI22:
 2051              	.LM460:
 2052 1170 113045E2 		sub	r3, r5, #17
 2053              	.LM461:
 2054 1174 04B04CE2 		sub	fp, ip, #4
 2055              	.LCFI23:
 2056 1178 08D04DE2 		sub	sp, sp, #8
 2057              	.LCFI24:
 2058 117c 0118A0E1 		mov	r1, r1, asl #16
 2059              	.LVL86:
 2060              	.LM462:
 2061 1180 0D0053E3 		cmp	r3, #13
 2062              	.LM463:
 2063              	.LM464:
 2064 1184 2148A0E1 		mov	r4, r1, lsr #16
 2065              	.LVL87:
 2066              	.LM465:
 2067 1188 5000009A 		bls	.L194
 2068              	.LVL88:
 2069              	.LM466:
 2070 118c 313045E2 		sub	r3, r5, #49
 2071 1190 0D0053E3 		cmp	r3, #13
 2072 1194 8100008A 		bhi	.L395
 2073              	.L196:
 2074              	.LBB21:
 2075              	.LM467:
 2076 1198 303045E2 		sub	r3, r5, #48
 2077 119c FF6003E2 		and	r6, r3, #255
 2078              	.LVL89:
 2079              	.LM468:
 2080 11a0 020056E3 		cmp	r6, #2
 2081 11a4 4600008A 		bhi	.L366
 2082              	.LM469:
 2083 11a8 810054E3 		cmp	r4, #129
 2084              	.LM470:
 2085 11ac 30C08682 		addhi	ip, r6, #48
 2086              	.LM471:
 2087 11b0 0E01008A 		bhi	.L394
 2088              	.LM472:
 2089 11b4 981F9FE5 		ldr	r1, .L408
 2090              	.LM473:
 2091 11b8 024044E2 		sub	r4, r4, #2
 2092              	.LVL90:
 2093              	.LM474:
 2094 11bc 0150D1E5 		ldrb	r5, [r1, #1]	@ zero_extendqisi2
 2095              	.LVL91:
 2096              	.LM475:
 2097 11c0 00E0D1E5 		ldrb	lr, [r1, #0]	@ zero_extendqisi2
 2098 11c4 8C3F9FE5 		ldr	r3, .L408+4
 2099              	.LM476:
 2100 11c8 8CCF9FE5 		ldr	ip, .L408+8
 2101              	.LM477:
 2102 11cc 8C9F9FE5 		ldr	r9, .L408+12
 2103 11d0 0420A0E1 		mov	r2, r4
 2104              	.LM478:
 2105 11d4 A44F84E0 		add	r4, r4, r4, lsr #31
 2106              	.LM479:
 2107 11d8 0650CCE7 		strb	r5, [ip, r6]
 2108              	.LM480:
 2109 11dc 021081E2 		add	r1, r1, #2
 2110 11e0 860389E0 		add	r0, r9, r6, asl #7
 2111              	.LVL92:
 2112              	.LM481:
 2113 11e4 06E0C3E7 		strb	lr, [r3, r6]
 2114              	.LM482:
 2115 11e8 C450A0E1 		mov	r5, r4, asr #1
 2116              	.LM483:
 2117 11ec FEFFFFEB 		bl	memcpy
 2118              	.LM484:
 2119 11f0 000055E3 		cmp	r5, #0
 2120 11f4 320000DA 		ble	.L366
 2121              	.LM485:
 2122 11f8 644F9FE5 		ldr	r4, .L408+16
 2123              	.LM486:
 2124 11fc 643F9FE5 		ldr	r3, .L408+20
 2125              	.LM487:
 2126 1200 0010D4E5 		ldrb	r1, [r4, #0]	@ zero_extendqisi2
 2127 1204 0120D4E5 		ldrb	r2, [r4, #1]	@ zero_extendqisi2
 2128 1208 0080A0E3 		mov	r8, #0
 2129              	.LVL93:
 2130              	.LM488:
 2131 120c 00E093E5 		ldr	lr, [r3, #0]
 2132              	.LM489:
 2133 1210 02A481E1 		orr	sl, r1, r2, asl #8
 2134 1214 0830A0E1 		mov	r3, r8
 2135 1218 0870A0E1 		mov	r7, r8
 2136              	.LVL94:
 2137              	.L287:
 2138              	.LM490:
 2139 121c 00005EE3 		cmp	lr, #0
 2140 1220 140000DA 		ble	.L291
 2141              	.LM491:
 2142 1224 063383E0 		add	r3, r3, r6, asl #6
 2143 1228 8330A0E1 		mov	r3, r3, asl #1
 2144 122c B9C093E1 		ldrh	ip, [r3, r9]
 2145 1230 0C005AE1 		cmp	sl, ip
 2146 1234 0010A003 		moveq	r1, #0
 2147 1238 0100A001 		moveq	r0, r1
 2148 123c F300000A 		beq	.L290
 2149              	.LVL95:
 2150              	.LM492:
 2151 1240 0010A0E3 		mov	r1, #0
 2152 1244 040000EA 		b	.L289
 2153              	.LVL96:
 2154              	.L288:
 2155              	.LM493:
 2156 1248 0430D3E7 		ldrb	r3, [r3, r4]	@ zero_extendqisi2
 2157 124c 0120D2E5 		ldrb	r2, [r2, #1]	@ zero_extendqisi2
 2158 1250 023483E1 		orr	r3, r3, r2, asl #8
 2159 1254 0C0053E1 		cmp	r3, ip
 2160 1258 EC00000A 		beq	.L290
 2161              	.L289:
 2162              	.LM494:
 2163 125c 011081E2 		add	r1, r1, #1
 2164              	.LM495:
 2165 1260 8101A0E1 		mov	r0, r1, asl #3
 2166 1264 013080E0 		add	r3, r0, r1
 2167 1268 833081E0 		add	r3, r1, r3, asl #1
 2168              	.LM496:
 2169 126c 0E0051E1 		cmp	r1, lr
 2170              	.LM497:
 2171 1270 042083E0 		add	r2, r3, r4
 2172              	.LM498:
 2173 1274 F3FFFF1A 		bne	.L288
 2174              	.L291:
 2175              	.LM499:
 2176 1278 013087E2 		add	r3, r7, #1
 2177              	.LM500:
 2178 127c 030055E1 		cmp	r5, r3
 2179              	.LM501:
 2180 1280 0370A0E1 		mov	r7, r3
 2181              	.LM502:
 2182 1284 E4FFFF1A 		bne	.L287
 2183              	.LM503:
 2184 1288 000058E3 		cmp	r8, #0
 2185 128c 0C00000A 		beq	.L366
 2186              	.LM504:
 2187 1290 D43E9FE5 		ldr	r3, .L408+24
 2188              	.LM505:
 2189 1294 D4CE9FE5 		ldr	ip, .L408+28
 2190              	.LM506:
 2191 1298 86E0A0E1 		mov	lr, r6, asl #1
 2192              	.LM507:
 2193 129c 304086E2 		add	r4, r6, #48
 2194              	.LM508:
 2195 12a0 B3808EE1 		strh	r8, [lr, r3]	@ movhi
 2196              	.LM509:
 2197 12a4 A000A0E3 		mov	r0, #160
 2198              	.LM510:
 2199 12a8 0130A0E3 		mov	r3, #1
 2200              	.LM511:
 2201 12ac 2A104BE2 		sub	r1, fp, #42
 2202              	.LVL97:
 2203 12b0 0220A0E3 		mov	r2, #2
 2204              	.LM512:
 2205 12b4 0650CCE7 		strb	r5, [ip, r6]
 2206              	.LM513:
 2207 12b8 2A404BE5 		strb	r4, [fp, #-42]
 2208              	.LM514:
 2209 12bc 29304BE5 		strb	r3, [fp, #-41]
 2210              	.LM515:
 2211 12c0 FEFFFFEB 		bl	aciTxSendPacket
 2212              	.LVL98:
 2213              	.L366:
 2214              	.LBE21:
 2215              	.LM516:
 2216 12c4 28D04BE2 		sub	sp, fp, #40
 2217 12c8 F06F9DE8 		ldmfd	sp, {r4, r5, r6, r7, r8, r9, sl, fp, sp, lr}
 2218 12cc 1EFF2FE1 		bx	lr
 2219              	.LVL99:
 2220              	.L194:
 2221              	.LBB22:
 2222              	.LM517:
 2223 12d0 103045E2 		sub	r3, r5, #16
 2224 12d4 FF7003E2 		and	r7, r3, #255
 2225              	.LVL100:
 2226              	.LM518:
 2227 12d8 1C3F9FE5 		ldr	r3, .L408+168
 2228 12dc 0020A0E3 		mov	r2, #0
 2229              	.LM519:
 2230 12e0 020057E3 		cmp	r7, #2
 2231              	.LM520:
 2232 12e4 0020C3E5 		strb	r2, [r3, #0]
 2233              	.LM521:
 2234 12e8 F5FFFF8A 		bhi	.L366
 2235              	.LM522:
 2236 12ec 810054E3 		cmp	r4, #129
 2237 12f0 BD00008A 		bhi	.L368
 2238 12f4 FC5E9FE5 		ldr	r5, .L408+164
 2239              	.LVL101:
 2240              	.LM523:
 2241 12f8 EC3E9FE5 		ldr	r3, .L408+152
 2242 12fc E46E9FE5 		ldr	r6, .L408+148
 2243 1300 8703A0E1 		mov	r0, r7, asl #7
 2244              	.LVL102:
 2245 1304 071483E0 		add	r1, r3, r7, asl #8
 2246 1308 07C385E0 		add	ip, r5, r7, asl #6
 2247 130c 063080E0 		add	r3, r0, r6
 2248 1310 0250A0E1 		mov	r5, r2
 2249 1314 02E0A0E1 		mov	lr, r2	@ movhi
 2250              	.L260:
 2251              	.LM524:
 2252 1318 0CE0C2E7 		strb	lr, [r2, ip]
 2253 131c 012082E2 		add	r2, r2, #1
 2254              	.LM525:
 2255 1320 0080A0E3 		mov	r8, #0	@ movhi
 2256              	.LM526:
 2257 1324 400052E3 		cmp	r2, #64
 2258              	.LM527:
 2259 1328 B280C3E0 		strh	r8, [r3], #2	@ movhi
 2260              	.LM528:
 2261 132c 045081E4 		str	r5, [r1], #4
 2262              	.LM529:
 2263 1330 F8FFFF1A 		bne	.L260
 2264              	.LM530:
 2265 1334 181E9FE5 		ldr	r1, .L408
 2266 1338 B43E9FE5 		ldr	r3, .L408+160
 2267 133c 01C0D1E4 		ldrb	ip, [r1], #1	@ zero_extendqisi2
 2268              	.LM531:
 2269 1340 014044E2 		sub	r4, r4, #1
 2270              	.LVL103:
 2271              	.LM532:
 2272 1344 07C0C3E7 		strb	ip, [r3, r7]
 2273              	.LM533:
 2274 1348 0420A0E1 		mov	r2, r4
 2275 134c 060080E0 		add	r0, r0, r6
 2276              	.LM534:
 2277 1350 A44F84E0 		add	r4, r4, r4, lsr #31
 2278              	.LM535:
 2279 1354 FEFFFFEB 		bl	memcpy
 2280              	.LM536:
 2281 1358 C440A0E1 		mov	r4, r4, asr #1
 2282              	.LM537:
 2283 135c 103E9FE5 		ldr	r3, .L408+32
 2284              	.LM538:
 2285 1360 FF4004E2 		and	r4, r4, #255
 2286              	.LM539:
 2287 1364 87E0A0E1 		mov	lr, r7, asl #1
 2288 1368 B3408EE1 		strh	r4, [lr, r3]	@ movhi
 2289              	.LM540:
 2290 136c 04CE9FE5 		ldr	ip, .L408+36
 2291              	.LM541:
 2292 1370 783E9FE5 		ldr	r3, .L408+156
 2293              	.LM542:
 2294 1374 0150A0E3 		mov	r5, #1	@ movhi
 2295              	.LM543:
 2296 1378 106087E2 		add	r6, r7, #16
 2297              	.LM544:
 2298 137c A000A0E3 		mov	r0, #160
 2299 1380 2A104BE2 		sub	r1, fp, #42
 2300 1384 0220A0E3 		mov	r2, #2
 2301              	.LM545:
 2302 1388 BC508EE1 		strh	r5, [lr, ip]	@ movhi
 2303              	.LM546:
 2304 138c 0740C3E7 		strb	r4, [r3, r7]
 2305              	.LM547:
 2306 1390 2A604BE5 		strb	r6, [fp, #-42]
 2307              	.LM548:
 2308 1394 29504BE5 		strb	r5, [fp, #-41]
 2309              	.LM549:
 2310 1398 FEFFFFEB 		bl	aciTxSendPacket
 2311 139c C8FFFFEA 		b	.L366
 2312              	.LVL104:
 2313              	.L395:
 2314              	.LBE22:
 2315              	.LM550:
 2316 13a0 613045E2 		sub	r3, r5, #97
 2317 13a4 0D0053E3 		cmp	r3, #13
 2318 13a8 4C00008A 		bhi	.L396
 2319              	.L198:
 2320              	.LBB23:
 2321              	.LM551:
 2322 13ac 603045E2 		sub	r3, r5, #96
 2323 13b0 FF5003E2 		and	r5, r3, #255
 2324              	.LVL105:
 2325              	.LM552:
 2326 13b4 020055E3 		cmp	r5, #2
 2327 13b8 C1FFFF8A 		bhi	.L366
 2328              	.LM553:
 2329 13bc 810054E3 		cmp	r4, #129
 2330              	.LM554:
 2331 13c0 60C08582 		addhi	ip, r5, #96
 2332              	.LM555:
 2333 13c4 8900008A 		bhi	.L394
 2334              	.LM556:
 2335 13c8 841D9FE5 		ldr	r1, .L408
 2336              	.LM557:
 2337 13cc A82D9FE5 		ldr	r2, .L408+40
 2338              	.LM558:
 2339 13d0 A83D9FE5 		ldr	r3, .L408+44
 2340 13d4 01C0D1E4 		ldrb	ip, [r1], #1	@ zero_extendqisi2
 2341              	.LM559:
 2342 13d8 014044E2 		sub	r4, r4, #1
 2343              	.LVL106:
 2344 13dc 850382E0 		add	r0, r2, r5, asl #7
 2345              	.LVL107:
 2346 13e0 0420A0E1 		mov	r2, r4
 2347              	.LM560:
 2348 13e4 A44F84E0 		add	r4, r4, r4, lsr #31
 2349              	.LM561:
 2350 13e8 05C0C3E7 		strb	ip, [r3, r5]
 2351              	.LM562:
 2352 13ec C4A0A0E1 		mov	sl, r4, asr #1
 2353              	.LM563:
 2354 13f0 FEFFFFEB 		bl	memcpy
 2355              	.LM564:
 2356 13f4 00005AE3 		cmp	sl, #0
 2357              	.LM565:
 2358 13f8 603085E2 		add	r3, r5, #96
 2359 13fc F8364BE5 		strb	r3, [fp, #-1784]
 2360              	.LM566:
 2361 1400 0120A0E3 		mov	r2, #1
 2362              	.LM567:
 2363 1404 0030A0C3 		movgt	r3, #0
 2364 1408 6F9E4BC2 		subgt	r9, fp, #1776
 2365              	.LM568:
 2366 140c F7264BE5 		strb	r2, [fp, #-1783]
 2367              	.LM569:
 2368 1410 0360A0C1 		movgt	r6, r3
 2369              	.LVL108:
 2370 1414 0370A0C1 		movgt	r7, r3
 2371 1418 089049C2 		subgt	r9, r9, #8
 2372 141c E40000DA 		ble	.L397
 2373              	.LVL109:
 2374              	.L307:
 2375              	.LM570:
 2376 1420 5C8D9FE5 		ldr	r8, .L408+48
 2377 1424 00C098E5 		ldr	ip, [r8, #0]
 2378 1428 00005CE3 		cmp	ip, #0
 2379 142c 190000DA 		ble	.L305
 2380              	.LM571:
 2381 1430 508D9FE5 		ldr	r8, .L408+52
 2382 1434 053383E0 		add	r3, r3, r5, asl #6
 2383 1438 3CED9FE5 		ldr	lr, .L408+40
 2384 143c 0110D8E5 		ldrb	r1, [r8, #1]	@ zero_extendqisi2
 2385              	.LVL110:
 2386 1440 8330A0E1 		mov	r3, r3, asl #1
 2387 1444 0020D8E5 		ldrb	r2, [r8, #0]	@ zero_extendqisi2
 2388 1448 BE0093E1 		ldrh	r0, [r3, lr]
 2389 144c 012482E1 		orr	r2, r2, r1, asl #8
 2390 1450 000052E1 		cmp	r2, r0
 2391 1454 0010A003 		moveq	r1, #0
 2392 1458 0140A001 		moveq	r4, r1
 2393 145c 9B00000A 		beq	.L304
 2394              	.LM572:
 2395 1460 0010A0E3 		mov	r1, #0
 2396 1464 040000EA 		b	.L303
 2397              	.LVL111:
 2398              	.L302:
 2399              	.LM573:
 2400 1468 0830D3E7 		ldrb	r3, [r3, r8]	@ zero_extendqisi2
 2401 146c 0120D2E5 		ldrb	r2, [r2, #1]	@ zero_extendqisi2
 2402 1470 023483E1 		orr	r3, r3, r2, asl #8
 2403 1474 000053E1 		cmp	r3, r0
 2404 1478 9400000A 		beq	.L304
 2405              	.L303:
 2406              	.LM574:
 2407 147c 011081E2 		add	r1, r1, #1
 2408              	.LM575:
 2409 1480 8141A0E1 		mov	r4, r1, asl #3
 2410 1484 013084E0 		add	r3, r4, r1
 2411 1488 833081E0 		add	r3, r1, r3, asl #1
 2412              	.LM576:
 2413 148c 0C0051E1 		cmp	r1, ip
 2414              	.LM577:
 2415 1490 082083E0 		add	r2, r3, r8
 2416              	.LM578:
 2417 1494 F3FFFF1A 		bne	.L302
 2418              	.L305:
 2419              	.LM579:
 2420 1498 013087E2 		add	r3, r7, #1
 2421              	.LM580:
 2422 149c 03005AE1 		cmp	sl, r3
 2423              	.LM581:
 2424 14a0 0370A0E1 		mov	r7, r3
 2425              	.LM582:
 2426 14a4 DDFFFF1A 		bne	.L307
 2427 14a8 0628A0E1 		mov	r2, r6, asl #16
 2428 14ac 023882E2 		add	r3, r2, #131072
 2429 14b0 2338A0E1 		mov	r3, r3, lsr #16
 2430 14b4 2248A0E1 		mov	r4, r2, lsr #16
 2431              	.L309:
 2432              	.LM583:
 2433 14b8 CCCC9FE5 		ldr	ip, .L408+56
 2434              	.LM584:
 2435 14bc 0320A0E1 		mov	r2, r3
 2436              	.LM585:
 2437 14c0 8530A0E1 		mov	r3, r5, asl #1
 2438 14c4 BC4083E1 		strh	r4, [r3, ip]	@ movhi
 2439              	.LM586:
 2440 14c8 C04C9FE5 		ldr	r4, .L408+60
 2441              	.LM587:
 2442 14cc 0910A0E1 		mov	r1, r9
 2443              	.LVL112:
 2444 14d0 A000A0E3 		mov	r0, #160
 2445              	.LM588:
 2446 14d4 05A0C4E7 		strb	sl, [r4, r5]
 2447              	.LM589:
 2448 14d8 FEFFFFEB 		bl	aciTxSendPacket
 2449 14dc 78FFFFEA 		b	.L366
 2450              	.LVL113:
 2451              	.L396:
 2452              	.LBE23:
 2453              	.LM590:
 2454 14e0 413045E2 		sub	r3, r5, #65
 2455 14e4 0D0053E3 		cmp	r3, #13
 2456 14e8 5000009A 		bls	.L200
 2457              	.LM591:
 2458 14ec 713045E2 		sub	r3, r5, #113
 2459 14f0 0D0053E3 		cmp	r3, #13
 2460 14f4 6300009A 		bls	.L202
 2461              	.LM592:
 2462 14f8 240055E3 		cmp	r5, #36
 2463 14fc 9400000A 		beq	.L215
 2464 1500 8800008A 		bhi	.L224
 2465 1504 070055E3 		cmp	r5, #7
 2466 1508 4201000A 		beq	.L210
 2467 150c F100008A 		bhi	.L225
 2468 1510 030055E3 		cmp	r5, #3
 2469 1514 8E02000A 		beq	.L207
 2470 1518 0802008A 		bhi	.L226
 2471 151c 010055E3 		cmp	r5, #1
 2472 1520 DB02000A 		beq	.L205
 2473 1524 020055E3 		cmp	r5, #2
 2474 1528 65FFFF1A 		bne	.L366
 2475              	.LBB24:
 2476              	.LM593:
 2477 152c A118A0E1 		mov	r1, r1, lsr #17
 2478 1530 000051E3 		cmp	r1, #0
 2479 1534 62FFFFDA 		ble	.L366
 2480 1538 011081E2 		add	r1, r1, #1
 2481 153c 10AC9FE5 		ldr	sl, .L408
 2482 1540 209C9FE5 		ldr	r9, .L408+20
 2483 1544 00170BE5 		str	r1, [fp, #-1792]
 2484              	.LM594:
 2485 1548 0020A0E3 		mov	r2, #0
 2486 154c 0180A0E3 		mov	r8, #1
 2487              	.LVL114:
 2488              	.L262:
 2489              	.LBB25:
 2490              	.LM595:
 2491 1550 8220A0E1 		mov	r2, r2, asl #1
 2492 1554 0A3082E0 		add	r3, r2, sl
 2493 1558 0100D3E5 		ldrb	r0, [r3, #1]	@ zero_extendqisi2
 2494 155c 0210DAE7 		ldrb	r1, [sl, r2]	@ zero_extendqisi2
 2495              	.LM596:
 2496 1560 00C099E5 		ldr	ip, [r9, #0]
 2497              	.LM597:
 2498 1564 001481E1 		orr	r1, r1, r0, asl #8
 2499              	.LM598:
 2500 1568 00005CE3 		cmp	ip, #0
 2501              	.LM599:
 2502 156c BE124BE1 		strh	r1, [fp, #-46]	@ movhi
 2503              	.LM600:
 2504 1570 130000DA 		ble	.L263
 2505              	.LM601:
 2506 1574 E84B9FE5 		ldr	r4, .L408+16
 2507              	.LVL115:
 2508 1578 0030D4E5 		ldrb	r3, [r4, #0]	@ zero_extendqisi2
 2509 157c 0120D4E5 		ldrb	r2, [r4, #1]	@ zero_extendqisi2
 2510 1580 023483E1 		orr	r3, r3, r2, asl #8
 2511 1584 030051E1 		cmp	r1, r3
 2512 1588 0060A013 		movne	r6, #0
 2513 158c 0600A011 		movne	r0, r6
 2514 1590 0500001A 		bne	.L267
 2515              	.LVL116:
 2516 1594 960100EA 		b	.L405
 2517              	.L268:
 2518 1598 0120D3E5 		ldrb	r2, [r3, #1]	@ zero_extendqisi2
 2519 159c 0430D0E7 		ldrb	r3, [r0, r4]	@ zero_extendqisi2
 2520 15a0 023483E1 		orr	r3, r3, r2, asl #8
 2521 15a4 030051E1 		cmp	r1, r3
 2522 15a8 9301000A 		beq	.L269
 2523              	.L267:
 2524              	.LM602:
 2525 15ac 016086E2 		add	r6, r6, #1
 2526 15b0 130080E2 		add	r0, r0, #19
 2527 15b4 0C0056E1 		cmp	r6, ip
 2528              	.LM603:
 2529 15b8 8671A0E1 		mov	r7, r6, asl #3
 2530 15bc 043080E0 		add	r3, r0, r4
 2531              	.LM604:
 2532 15c0 F4FFFF1A 		bne	.L268
 2533              	.LVL117:
 2534              	.L263:
 2535              	.LM605:
 2536 15c4 8500A0E3 		mov	r0, #133
 2537 15c8 2E104BE2 		sub	r1, fp, #46
 2538 15cc 0220A0E3 		mov	r2, #2
 2539 15d0 FEFFFFEB 		bl	aciTxSendPacket
 2540              	.L279:
 2541              	.LBE25:
 2542              	.LM606:
 2543 15d4 00E71BE5 		ldr	lr, [fp, #-1792]
 2544              	.LBB26:
 2545              	.LBB27:
 2546              	.LM607:
 2547 15d8 0820A0E1 		mov	r2, r8
 2548 15dc 018088E2 		add	r8, r8, #1
 2549              	.LBE27:
 2550              	.LBE26:
 2551              	.LM608:
 2552 15e0 08005EE1 		cmp	lr, r8
 2553 15e4 D9FFFF1A 		bne	.L262
 2554 15e8 35FFFFEA 		b	.L366
 2555              	.LVL118:
 2556              	.L368:
 2557              	.LM609:
 2558 15ec 10C087E2 		add	ip, r7, #16
 2559              	.LVL119:
 2560              	.L394:
 2561              	.LM610:
 2562 15f0 0E30E0E3 		mvn	r3, #14
 2563              	.LM611:
 2564 15f4 A000A0E3 		mov	r0, #160
 2565              	.LVL120:
 2566 15f8 2A104BE2 		sub	r1, fp, #42
 2567 15fc 0220A0E3 		mov	r2, #2
 2568              	.LM612:
 2569 1600 2AC04BE5 		strb	ip, [fp, #-42]
 2570              	.LM613:
 2571 1604 29304BE5 		strb	r3, [fp, #-41]
 2572              	.LM614:
 2573 1608 FEFFFFEB 		bl	aciTxSendPacket
 2574 160c 2CFFFFEA 		b	.L366
 2575              	.LVL121:
 2576              	.L290:
 2577              	.LM615:
 2578 1610 013080E0 		add	r3, r0, r1
 2579 1614 833081E0 		add	r3, r1, r3, asl #1
 2580 1618 043083E0 		add	r3, r3, r4
 2581 161c 0E20D3E5 		ldrb	r2, [r3, #14]	@ zero_extendqisi2
 2582 1620 222188E0 		add	r2, r8, r2, lsr #2
 2583 1624 0228A0E1 		mov	r2, r2, asl #16
 2584 1628 2288A0E1 		mov	r8, r2, lsr #16
 2585 162c 11FFFFEA 		b	.L291
 2586              	.LVL122:
 2587              	.L200:
 2588              	.LM616:
 2589 1630 403045E2 		sub	r3, r5, #64
 2590 1634 FF5003E2 		and	r5, r3, #255
 2591              	.LVL123:
 2592              	.LM617:
 2593 1638 020055E3 		cmp	r5, #2
 2594 163c 20FFFF8A 		bhi	.L366
 2595              	.LM618:
 2596 1640 242B9FE5 		ldr	r2, .L408+24
 2597 1644 8530A0E1 		mov	r3, r5, asl #1
 2598 1648 B22093E1 		ldrh	r2, [r3, r2]
 2599 164c 011044E2 		sub	r1, r4, #1
 2600 1650 010052E1 		cmp	r2, r1
 2601 1654 4300000A 		beq	.L399
 2602              	.LM619:
 2603 1658 342B9FE5 		ldr	r2, .L408+64
 2604 165c 0530D2E7 		ldrb	r3, [r2, r5]	@ zero_extendqisi2
 2605 1660 013083E2 		add	r3, r3, #1
 2606 1664 0530C2E7 		strb	r3, [r2, r5]
 2607              	.LM620:
 2608 1668 283B9FE5 		ldr	r3, .L408+68
 2609 166c 0010A0E3 		mov	r1, #0
 2610 1670 0510C3E7 		strb	r1, [r3, r5]
 2611 1674 12FFFFEA 		b	.L366
 2612              	.LVL124:
 2613              	.L229:
 2614              	.LBE24:
 2615              	.LM621:
 2616 1678 600055E3 		cmp	r5, #96
 2617 167c 4AFFFF0A 		beq	.L198
 2618 1680 700055E3 		cmp	r5, #112
 2619 1684 0EFFFF1A 		bne	.L366
 2620              	.L202:
 2621              	.LBB28:
 2622              	.LM622:
 2623 1688 703045E2 		sub	r3, r5, #112
 2624 168c FF5003E2 		and	r5, r3, #255
 2625              	.LVL125:
 2626              	.LM623:
 2627 1690 020055E3 		cmp	r5, #2
 2628 1694 0AFFFF8A 		bhi	.L366
 2629              	.LM624:
 2630 1698 B4CA9FE5 		ldr	ip, .L408
 2631 169c DC3A9FE5 		ldr	r3, .L408+44
 2632 16a0 0020DCE5 		ldrb	r2, [ip, #0]	@ zero_extendqisi2
 2633 16a4 0510D3E7 		ldrb	r1, [r3, r5]	@ zero_extendqisi2
 2634 16a8 020051E1 		cmp	r1, r2
 2635 16ac C300000A 		beq	.L371
 2636              	.LM625:
 2637 16b0 E42A9FE5 		ldr	r2, .L408+72
 2638 16b4 0530D2E7 		ldrb	r3, [r2, r5]	@ zero_extendqisi2
 2639 16b8 013083E2 		add	r3, r3, #1
 2640 16bc 0530C2E7 		strb	r3, [r2, r5]
 2641              	.LM626:
 2642 16c0 D83A9FE5 		ldr	r3, .L408+76
 2643 16c4 0010A0E3 		mov	r1, #0
 2644 16c8 0510C3E7 		strb	r1, [r3, r5]
 2645 16cc FCFEFFEA 		b	.L366
 2646              	.LVL126:
 2647              	.L304:
 2648              	.LM627:
 2649 16d0 014084E0 		add	r4, r4, r1
 2650              	.LVL127:
 2651 16d4 844081E0 		add	r4, r1, r4, asl #1
 2652 16d8 084084E0 		add	r4, r4, r8
 2653 16dc 0C3084E2 		add	r3, r4, #12
 2654 16e0 0420D3E5 		ldrb	r2, [r3, #4]	@ zero_extendqisi2
 2655 16e4 0310D3E5 		ldrb	r1, [r3, #3]	@ zero_extendqisi2
 2656              	.LVL128:
 2657 16e8 05C0D3E5 		ldrb	ip, [r3, #5]	@ zero_extendqisi2
 2658 16ec 06E0D3E5 		ldrb	lr, [r3, #6]	@ zero_extendqisi2
 2659 16f0 021481E1 		orr	r1, r1, r2, asl #8
 2660 16f4 0608A0E1 		mov	r0, r6, asl #16
 2661 16f8 0E20D4E5 		ldrb	r2, [r4, #14]	@ zero_extendqisi2
 2662 16fc 0C1881E1 		orr	r1, r1, ip, asl #16
 2663 1700 400889E0 		add	r0, r9, r0, asr #16
 2664 1704 0E1C81E1 		orr	r1, r1, lr, asl #24
 2665 1708 020080E2 		add	r0, r0, #2
 2666 170c 2221A0E1 		mov	r2, r2, lsr #2
 2667 1710 FEFFFFEB 		bl	memcpy
 2668              	.LM628:
 2669 1714 0E30D4E5 		ldrb	r3, [r4, #14]	@ zero_extendqisi2
 2670 1718 233186E0 		add	r3, r6, r3, lsr #2
 2671 171c 0338A0E1 		mov	r3, r3, asl #16
 2672 1720 2368A0E1 		mov	r6, r3, lsr #16
 2673 1724 5BFFFFEA 		b	.L305
 2674              	.LVL129:
 2675              	.L224:
 2676              	.LBE28:
 2677              	.LM629:
 2678 1728 890055E3 		cmp	r5, #137
 2679 172c 8000000A 		beq	.L217
 2680 1730 2400008A 		bhi	.L228
 2681 1734 400055E3 		cmp	r5, #64
 2682 1738 BCFFFF0A 		beq	.L200
 2683 173c CDFFFF8A 		bhi	.L229
 2684 1740 250055E3 		cmp	r5, #37
 2685 1744 3703000A 		beq	.L216
 2686 1748 300055E3 		cmp	r5, #48
 2687 174c DCFEFF1A 		bne	.L366
 2688 1750 90FEFFEA 		b	.L196
 2689              	.L215:
 2690              	.LBB29:
 2691              	.LM630:
 2692 1754 A200A0E3 		mov	r0, #162
 2693 1758 441A9FE5 		ldr	r1, .L408+80
 2694 175c 0220A0E3 		mov	r2, #2
 2695 1760 FEFFFFEB 		bl	aciTxSendPacket
 2696 1764 D6FEFFEA 		b	.L366
 2697              	.LVL130:
 2698              	.L399:
 2699              	.LM631:
 2700 1768 383A9FE5 		ldr	r3, .L408+84
 2701 176c 050185E0 		add	r0, r5, r5, asl #2
 2702              	.LVL131:
 2703 1770 000180E0 		add	r0, r0, r0, asl #2
 2704 1774 000283E0 		add	r0, r3, r0, asl #4
 2705 1778 2C1A9FE5 		ldr	r1, .L408+88
 2706 177c FEFFFFEB 		bl	memcpy
 2707              	.LM632:
 2708 1780 D4399FE5 		ldr	r3, .L408+8
 2709 1784 0520D3E7 		ldrb	r2, [r3, r5]	@ zero_extendqisi2
 2710              	.LM633:
 2711 1788 203A9FE5 		ldr	r3, .L408+92
 2712 178c 0140A0E3 		mov	r4, #1
 2713              	.LVL132:
 2714              	.LM634:
 2715 1790 000052E3 		cmp	r2, #0
 2716              	.LM635:
 2717 1794 0540C3E7 		strb	r4, [r3, r5]
 2718              	.LM636:
 2719 1798 C200001A 		bne	.L400
 2720              	.L315:
 2721              	.LM637:
 2722 179c F0299FE5 		ldr	r2, .L408+64
 2723              	.LM638:
 2724 17a0 F0199FE5 		ldr	r1, .L408+68
 2725              	.LM639:
 2726 17a4 0030A0E3 		mov	r3, #0
 2727 17a8 0530C2E7 		strb	r3, [r2, r5]
 2728              	.LM640:
 2729 17ac 0540C1E7 		strb	r4, [r1, r5]
 2730 17b0 C3FEFFEA 		b	.L366
 2731              	.LVL133:
 2732              	.L397:
 2733 17b4 6F9E4BE2 		sub	r9, fp, #1776
 2734              	.LM641:
 2735 17b8 0040A0E3 		mov	r4, #0
 2736 17bc 0230A0E3 		mov	r3, #2
 2737 17c0 089049E2 		sub	r9, r9, #8
 2738 17c4 3BFFFFEA 		b	.L309
 2739              	.LVL134:
 2740              	.L228:
 2741              	.LBE29:
 2742              	.LM642:
 2743 17c8 A50055E3 		cmp	r5, #165
 2744 17cc EC00000A 		beq	.L220
 2745 17d0 CB00008A 		bhi	.L230
 2746 17d4 A30055E3 		cmp	r5, #163
 2747 17d8 EB02000A 		beq	.L218
 2748 17dc A40055E3 		cmp	r5, #164
 2749 17e0 B7FEFF1A 		bne	.L366
 2750              	.LBB30:
 2751              	.LM643:
 2752 17e4 010054E3 		cmp	r4, #1
 2753 17e8 B5FEFF9A 		bls	.L366
 2754              	.LBB31:
 2755              	.LM644:
 2756 17ec C0399FE5 		ldr	r3, .L408+96
 2757 17f0 00E093E5 		ldr	lr, [r3, #0]
 2758              	.LM645:
 2759 17f4 58299FE5 		ldr	r2, .L408
 2760              	.LM646:
 2761 17f8 00005EE3 		cmp	lr, #0
 2762              	.LM647:
 2763 17fc 0010D2E5 		ldrb	r1, [r2, #0]	@ zero_extendqisi2
 2764 1800 0130D2E5 		ldrb	r3, [r2, #1]	@ zero_extendqisi2
 2765              	.LM648:
 2766 1804 AEFEFFDA 		ble	.L366
 2767              	.LM649:
 2768 1808 A8999FE5 		ldr	r9, .L408+100
 2769 180c 033481E1 		orr	r3, r1, r3, asl #8
 2770 1810 0020D9E5 		ldrb	r2, [r9, #0]	@ zero_extendqisi2
 2771 1814 0110D9E5 		ldrb	r1, [r9, #1]	@ zero_extendqisi2
 2772 1818 0338A0E1 		mov	r3, r3, asl #16
 2773 181c 012482E1 		orr	r2, r2, r1, asl #8
 2774 1820 43C8A0E1 		mov	ip, r3, asr #16
 2775 1824 0C0052E1 		cmp	r2, ip
 2776 1828 0010A013 		movne	r1, #0
 2777              	.LVL135:
 2778 182c 0100A011 		movne	r0, r1
 2779 1830 D202000A 		beq	.L401
 2780              	.LVL136:
 2781              	.L363:
 2782              	.LM650:
 2783 1834 011081E2 		add	r1, r1, #1
 2784 1838 130080E2 		add	r0, r0, #19
 2785 183c 01005EE1 		cmp	lr, r1
 2786              	.LM651:
 2787 1840 8141A0E1 		mov	r4, r1, asl #3
 2788              	.LVL137:
 2789 1844 093080E0 		add	r3, r0, r9
 2790              	.LM652:
 2791 1848 9DFEFF0A 		beq	.L366
 2792              	.LM653:
 2793 184c 0120D3E5 		ldrb	r2, [r3, #1]	@ zero_extendqisi2
 2794 1850 0930D0E7 		ldrb	r3, [r0, r9]	@ zero_extendqisi2
 2795 1854 023483E1 		orr	r3, r3, r2, asl #8
 2796 1858 03005CE1 		cmp	ip, r3
 2797 185c F4FFFF1A 		bne	.L363
 2798              	.LVL138:
 2799              	.L365:
 2800              	.LM654:
 2801 1860 014084E0 		add	r4, r4, r1
 2802              	.LVL139:
 2803 1864 844081E0 		add	r4, r1, r4, asl #1
 2804 1868 095084E0 		add	r5, r4, r9
 2805              	.LVL140:
 2806 186c BE6F4BE2 		sub	r6, fp, #760
 2807 1870 0510A0E1 		mov	r1, r5
 2808              	.LVL141:
 2809 1874 0600A0E1 		mov	r0, r6
 2810              	.LVL142:
 2811 1878 0220A0E3 		mov	r2, #2
 2812 187c FEFFFFEB 		bl	memcpy
 2813              	.LM655:
 2814 1880 0C3085E2 		add	r3, r5, #12
 2815 1884 0420D3E5 		ldrb	r2, [r3, #4]	@ zero_extendqisi2
 2816 1888 0310D3E5 		ldrb	r1, [r3, #3]	@ zero_extendqisi2
 2817 188c 0500D3E5 		ldrb	r0, [r3, #5]	@ zero_extendqisi2
 2818 1890 06C0D3E5 		ldrb	ip, [r3, #6]	@ zero_extendqisi2
 2819 1894 021481E1 		orr	r1, r1, r2, asl #8
 2820 1898 0E20D5E5 		ldrb	r2, [r5, #14]	@ zero_extendqisi2
 2821 189c 001881E1 		orr	r1, r1, r0, asl #16
 2822              	.LM656:
 2823 18a0 0230A0E1 		mov	r3, r2
 2824              	.LM657:
 2825 18a4 0C1C81E1 		orr	r1, r1, ip, asl #24
 2826 18a8 2221A0E1 		mov	r2, r2, lsr #2
 2827 18ac 030086E2 		add	r0, r6, #3
 2828              	.LM658:
 2829 18b0 F6324BE5 		strb	r3, [fp, #-758]
 2830              	.LM659:
 2831 18b4 FEFFFFEB 		bl	memcpy
 2832              	.LM660:
 2833 18b8 0E20D5E5 		ldrb	r2, [r5, #14]	@ zero_extendqisi2
 2834 18bc 2221A0E1 		mov	r2, r2, lsr #2
 2835 18c0 0610A0E1 		mov	r1, r6
 2836 18c4 032082E2 		add	r2, r2, #3
 2837 18c8 A400A0E3 		mov	r0, #164
 2838              	.LM661:
 2839 18cc 094084E0 		add	r4, r4, r9
 2840              	.LM662:
 2841 18d0 FEFFFFEB 		bl	aciTxSendPacket
 2842 18d4 7AFEFFEA 		b	.L366
 2843              	.LVL143:
 2844              	.L225:
 2845              	.LBE31:
 2846              	.LBE30:
 2847              	.LM663:
 2848 18d8 210055E3 		cmp	r5, #33
 2849 18dc 8300000A 		beq	.L212
 2850 18e0 7700008A 		bhi	.L227
 2851 18e4 100055E3 		cmp	r5, #16
 2852 18e8 78FEFF0A 		beq	.L194
 2853 18ec 200055E3 		cmp	r5, #32
 2854 18f0 73FEFF1A 		bne	.L366
 2855              	.LBB32:
 2856              	.LM664:
 2857 18f4 00399FE5 		ldr	r3, .L408+168
 2858 18f8 0020A0E3 		mov	r2, #0
 2859              	.LM665:
 2860 18fc 060054E3 		cmp	r4, #6
 2861              	.LM666:
 2862 1900 0020C3E5 		strb	r2, [r3, #0]
 2863              	.LM667:
 2864 1904 6EFEFF1A 		bne	.L366
 2865 1908 9C189FE5 		ldr	r1, .L408+88
 2866 190c A8089FE5 		ldr	r0, .L408+104
 2867 1910 06C081E2 		add	ip, r1, #6
 2868              	.L351:
 2869              	.LM668:
 2870 1914 0020D1E5 		ldrb	r2, [r1, #0]	@ zero_extendqisi2
 2871 1918 013051E5 		ldrb	r3, [r1, #-1]	@ zero_extendqisi2
 2872 191c 021081E2 		add	r1, r1, #2
 2873 1920 023483E1 		orr	r3, r3, r2, asl #8
 2874              	.LM669:
 2875 1924 0C0051E1 		cmp	r1, ip
 2876              	.LM670:
 2877 1928 B230C0E0 		strh	r3, [r0], #2	@ movhi
 2878              	.LM671:
 2879 192c F8FFFF1A 		bne	.L351
 2880 1930 63FEFFEA 		b	.L366
 2881              	.LVL144:
 2882              	.L217:
 2883              	.LM672:
 2884 1934 020054E3 		cmp	r4, #2
 2885 1938 61FEFF1A 		bne	.L366
 2886              	.LBB33:
 2887              	.LM673:
 2888 193c 10189FE5 		ldr	r1, .L408
 2889              	.LM674:
 2890 1940 3C389FE5 		ldr	r3, .L408+48
 2891              	.LM675:
 2892 1944 0000D1E5 		ldrb	r0, [r1, #0]	@ zero_extendqisi2
 2893              	.LM676:
 2894 1948 00C093E5 		ldr	ip, [r3, #0]
 2895              	.LM677:
 2896 194c 0120D1E5 		ldrb	r2, [r1, #1]	@ zero_extendqisi2
 2897              	.LM678:
 2898 1950 00005CE3 		cmp	ip, #0
 2899              	.LM679:
 2900 1954 020480E1 		orr	r0, r0, r2, asl #8
 2901 1958 BE024BE1 		strh	r0, [fp, #-46]	@ movhi
 2902              	.LVL145:
 2903              	.LM680:
 2904 195c 150000DA 		ble	.L367
 2905              	.LM681:
 2906 1960 20889FE5 		ldr	r8, .L408+52
 2907 1964 0030D8E5 		ldrb	r3, [r8, #0]	@ zero_extendqisi2
 2908 1968 0120D8E5 		ldrb	r2, [r8, #1]	@ zero_extendqisi2
 2909 196c 023483E1 		orr	r3, r3, r2, asl #8
 2910 1970 000053E1 		cmp	r3, r0
 2911 1974 0010A003 		moveq	r1, #0
 2912              	.LVL146:
 2913 1978 0140A001 		moveq	r4, r1
 2914              	.LVL147:
 2915 197c C602000A 		beq	.L343
 2916              	.LVL148:
 2917              	.LM682:
 2918 1980 0010A0E3 		mov	r1, #0
 2919 1984 040000EA 		b	.L345
 2920              	.LVL149:
 2921              	.L344:
 2922              	.LM683:
 2923 1988 0830D3E7 		ldrb	r3, [r3, r8]	@ zero_extendqisi2
 2924 198c 0120D2E5 		ldrb	r2, [r2, #1]	@ zero_extendqisi2
 2925 1990 023483E1 		orr	r3, r3, r2, asl #8
 2926 1994 030050E1 		cmp	r0, r3
 2927 1998 BF02000A 		beq	.L343
 2928              	.L345:
 2929              	.LM684:
 2930 199c 011081E2 		add	r1, r1, #1
 2931              	.LM685:
 2932 19a0 8141A0E1 		mov	r4, r1, asl #3
 2933 19a4 013084E0 		add	r3, r4, r1
 2934 19a8 833081E0 		add	r3, r1, r3, asl #1
 2935              	.LM686:
 2936 19ac 01005CE1 		cmp	ip, r1
 2937              	.LM687:
 2938 19b0 082083E0 		add	r2, r3, r8
 2939              	.LM688:
 2940 19b4 F3FFFF1A 		bne	.L344
 2941              	.LVL150:
 2942              	.L367:
 2943 19b8 71604BE2 		sub	r6, fp, #113
 2944 19bc CE0200EA 		b	.L339
 2945              	.LVL151:
 2946              	.L371:
 2947              	.LBE33:
 2948              	.LM689:
 2949 19c0 F8379FE5 		ldr	r3, .L408+108
 2950 19c4 050185E0 		add	r0, r5, r5, asl #2
 2951              	.LVL152:
 2952 19c8 000180E0 		add	r0, r0, r0, asl #2
 2953 19cc 01108CE2 		add	r1, ip, #1
 2954 19d0 012044E2 		sub	r2, r4, #1
 2955 19d4 000283E0 		add	r0, r3, r0, asl #4
 2956 19d8 FEFFFFEB 		bl	memcpy
 2957              	.LM690:
 2958 19dc E0379FE5 		ldr	r3, .L408+112
 2959 19e0 0140A0E3 		mov	r4, #1
 2960              	.LVL153:
 2961              	.LM691:
 2962 19e4 70C085E2 		add	ip, r5, #112
 2963              	.LM692:
 2964 19e8 2A104BE2 		sub	r1, fp, #42
 2965 19ec 0420A0E1 		mov	r2, r4
 2966              	.LM693:
 2967 19f0 0540C3E7 		strb	r4, [r3, r5]
 2968              	.LM694:
 2969 19f4 A000A0E3 		mov	r0, #160
 2970              	.LM695:
 2971 19f8 2AC04BE5 		strb	ip, [fp, #-42]
 2972              	.LM696:
 2973 19fc FEFFFFEB 		bl	aciTxSendPacket
 2974              	.LM697:
 2975 1a00 94379FE5 		ldr	r3, .L408+72
 2976              	.LM698:
 2977 1a04 94279FE5 		ldr	r2, .L408+76
 2978              	.LM699:
 2979 1a08 0010A0E3 		mov	r1, #0
 2980 1a0c 0510C3E7 		strb	r1, [r3, r5]
 2981              	.LM700:
 2982 1a10 0540C2E7 		strb	r4, [r2, r5]
 2983 1a14 2AFEFFEA 		b	.L366
 2984              	.LVL154:
 2985              	.L210:
 2986              	.LBB34:
 2987              	.LM701:
 2988 1a18 64379FE5 		ldr	r3, .L408+48
 2989 1a1c 000093E5 		ldr	r0, [r3, #0]
 2990 1a20 8060A0E1 		mov	r6, r0, asl #1
 2991 1a24 8630A0E1 		mov	r3, r6, asl #1
 2992 1a28 083083E2 		add	r3, r3, #8
 2993              	.LBE34:
 2994              	.LM702:
 2995 1a2c 0D70A0E1 		mov	r7, sp
 2996              	.LBB35:
 2997              	.LM703:
 2998 1a30 0DD063E0 		rsb	sp, r3, sp
 2999 1a34 2D21A0E1 		mov	r2, sp, lsr #2
 3000 1a38 02C1A0E1 		mov	ip, r2, asl #2
 3001              	.LM704:
 3002 1a3c 000050E3 		cmp	r0, #0
 3003              	.LM705:
 3004 1a40 B000CCE1 		strh	r0, [ip, #0]	@ movhi
 3005              	.LM706:
 3006 1a44 0F0000DA 		ble	.L335
 3007 1a48 0040A0E3 		mov	r4, #0
 3008              	.LVL155:
 3009 1a4c 34879FE5 		ldr	r8, .L408+52
 3010 1a50 0150A0E3 		mov	r5, #1
 3011              	.LVL156:
 3012 1a54 04E0A0E1 		mov	lr, r4
 3013              	.LVL157:
 3014              	.L337:
 3015              	.LM707:
 3016 1a58 08308EE0 		add	r3, lr, r8
 3017 1a5c 0110D3E5 		ldrb	r1, [r3, #1]	@ zero_extendqisi2
 3018 1a60 0820DEE7 		ldrb	r2, [lr, r8]	@ zero_extendqisi2
 3019 1a64 0538A0E1 		mov	r3, r5, asl #16
 3020              	.LM708:
 3021 1a68 014084E2 		add	r4, r4, #1
 3022              	.LM709:
 3023 1a6c 012482E1 		orr	r2, r2, r1, asl #8
 3024 1a70 A337A0E1 		mov	r3, r3, lsr #15
 3025              	.LM710:
 3026 1a74 040050E1 		cmp	r0, r4
 3027              	.LM711:
 3028 1a78 BC2083E1 		strh	r2, [r3, ip]	@ movhi
 3029              	.LM712:
 3030 1a7c 13E08EE2 		add	lr, lr, #19
 3031 1a80 015085E2 		add	r5, r5, #1
 3032 1a84 F3FFFF1A 		bne	.L337
 3033              	.LVL158:
 3034              	.L335:
 3035              	.LM713:
 3036 1a88 022086E2 		add	r2, r6, #2
 3037 1a8c 0228A0E1 		mov	r2, r2, asl #16
 3038 1a90 0C10A0E1 		mov	r1, ip
 3039              	.LVL159:
 3040 1a94 2228A0E1 		mov	r2, r2, lsr #16
 3041 1a98 8600A0E3 		mov	r0, #134
 3042 1a9c FEFFFFEB 		bl	aciTxSendPacket
 3043              	.LVL160:
 3044 1aa0 07D0A0E1 		mov	sp, r7
 3045 1aa4 06FEFFEA 		b	.L366
 3046              	.LVL161:
 3047              	.L400:
 3048              	.LBE35:
 3049              	.LM714:
 3050 1aa8 503085E2 		add	r3, r5, #80
 3051              	.LM715:
 3052 1aac A000A0E3 		mov	r0, #160
 3053 1ab0 2A104BE2 		sub	r1, fp, #42
 3054 1ab4 0420A0E1 		mov	r2, r4
 3055              	.LM716:
 3056 1ab8 2A304BE5 		strb	r3, [fp, #-42]
 3057              	.LM717:
 3058 1abc FEFFFFEB 		bl	aciTxSendPacket
 3059 1ac0 35FFFFEA 		b	.L315
 3060              	.LVL162:
 3061              	.L227:
 3062              	.LBE32:
 3063              	.LM718:
 3064 1ac4 220055E3 		cmp	r5, #34
 3065 1ac8 3A02000A 		beq	.L213
 3066 1acc 230055E3 		cmp	r5, #35
 3067 1ad0 FBFDFF1A 		bne	.L366
 3068              	.LBB36:
 3069              	.LM719:
 3070 1ad4 020054E3 		cmp	r4, #2
 3071 1ad8 F9FDFF1A 		bne	.L366
 3072              	.LM720:
 3073 1adc 0420A0E1 		mov	r2, r4
 3074 1ae0 6C169FE5 		ldr	r1, .L408
 3075 1ae4 B8069FE5 		ldr	r0, .L408+80
 3076 1ae8 FEFFFFEB 		bl	memcpy
 3077 1aec F4FDFFEA 		b	.L366
 3078              	.LVL163:
 3079              	.L212:
 3080              	.LM721:
 3081 1af0 A100A0E3 		mov	r0, #161
 3082 1af4 C0169FE5 		ldr	r1, .L408+104
 3083 1af8 0620A0E3 		mov	r2, #6
 3084 1afc FEFFFFEB 		bl	aciTxSendPacket
 3085 1b00 EFFDFFEA 		b	.L366
 3086              	.LVL164:
 3087              	.L230:
 3088              	.LBE36:
 3089              	.LM722:
 3090 1b04 F20055E3 		cmp	r5, #242
 3091 1b08 3C02000A 		beq	.L222
 3092 1b0c F30055E3 		cmp	r5, #243
 3093 1b10 2E02000A 		beq	.L223
 3094 1b14 F00055E3 		cmp	r5, #240
 3095 1b18 E9FDFF1A 		bne	.L366
 3096              	.LBB37:
 3097              	.LM723:
 3098 1b1c 0020A0E3 		mov	r2, #0
 3099              	.LM724:
 3100 1b20 4010A0E3 		mov	r1, #64
 3101              	.LM725:
 3102 1b24 2000A0E3 		mov	r0, #32
 3103              	.LM726:
 3104 1b28 0130A0E3 		mov	r3, #1
 3105 1b2c 53304BE5 		strb	r3, [fp, #-83]
 3106              	.LM727:
 3107 1b30 4F004BE5 		strb	r0, [fp, #-79]
 3108              	.LM728:
 3109 1b34 023083E2 		add	r3, r3, #2
 3110              	.LM729:
 3111 1b38 4D104BE5 		strb	r1, [fp, #-77]
 3112              	.LM730:
 3113 1b3c 52204BE5 		strb	r2, [fp, #-82]
 3114              	.LM731:
 3115 1b40 50104BE5 		strb	r1, [fp, #-80]
 3116              	.LM732:
 3117 1b44 51004BE5 		strb	r0, [fp, #-81]
 3118              	.LM733:
 3119 1b48 4C204BE5 		strb	r2, [fp, #-76]
 3120 1b4c 4B204BE5 		strb	r2, [fp, #-75]
 3121              	.LM734:
 3122 1b50 4E304BE5 		strb	r3, [fp, #-78]
 3123              	.LM735:
 3124 1b54 02C0A0E1 		mov	ip, r2
 3125 1b58 4B304BE2 		sub	r3, fp, #75
 3126              	.L234:
 3127              	.LM736:
 3128 1b5c 01C08CE2 		add	ip, ip, #1
 3129              	.LM737:
 3130 1b60 08005CE3 		cmp	ip, #8
 3131              	.LM738:
 3132 1b64 0120C3E5 		strb	r2, [r3, #1]
 3133 1b68 0220E3E5 		strb	r2, [r3, #2]!
 3134              	.LM739:
 3135 1b6c FAFFFF1A 		bne	.L234
 3136              	.LM740:
 3137 1b70 F100A0E3 		mov	r0, #241
 3138 1b74 53104BE2 		sub	r1, fp, #83
 3139 1b78 1920A0E3 		mov	r2, #25
 3140 1b7c FEFFFFEB 		bl	aciTxSendPacket
 3141 1b80 CFFDFFEA 		b	.L366
 3142              	.LVL165:
 3143              	.L220:
 3144              	.LBB38:
 3145              	.LM741:
 3146 1b84 3C369FE5 		ldr	r3, .L408+116
 3147 1b88 B030D3E1 		ldrh	r3, [r3, #0]
 3148              	.LM742:
 3149 1b8c 38004BE2 		sub	r0, fp, #56
 3150 1b90 34169FE5 		ldr	r1, .L408+120
 3151 1b94 0220A0E3 		mov	r2, #2
 3152              	.LM743:
 3153 1b98 BA334BE1 		strh	r3, [fp, #-58]	@ movhi
 3154              	.LM744:
 3155 1b9c FEFFFFEB 		bl	memcpy
 3156              	.LM745:
 3157 1ba0 36004BE2 		sub	r0, fp, #54
 3158 1ba4 24169FE5 		ldr	r1, .L408+124
 3159 1ba8 0220A0E3 		mov	r2, #2
 3160 1bac FEFFFFEB 		bl	memcpy
 3161              	.LM746:
 3162 1bb0 34004BE2 		sub	r0, fp, #52
 3163 1bb4 F8159FE5 		ldr	r1, .L408+96
 3164 1bb8 0220A0E3 		mov	r2, #2
 3165 1bbc FEFFFFEB 		bl	memcpy
 3166              	.LM747:
 3167 1bc0 32004BE2 		sub	r0, fp, #50
 3168 1bc4 9C159FE5 		ldr	r1, .L408+20
 3169 1bc8 0220A0E3 		mov	r2, #2
 3170 1bcc FEFFFFEB 		bl	memcpy
 3171              	.LM748:
 3172 1bd0 30004BE2 		sub	r0, fp, #48
 3173 1bd4 0220A0E3 		mov	r2, #2
 3174 1bd8 A4159FE5 		ldr	r1, .L408+48
 3175 1bdc FEFFFFEB 		bl	memcpy
 3176              	.LM749:
 3177 1be0 0500A0E1 		mov	r0, r5
 3178 1be4 3A104BE2 		sub	r1, fp, #58
 3179 1be8 0C20A0E3 		mov	r2, #12
 3180 1bec FEFFFFEB 		bl	aciTxSendPacket
 3181 1bf0 B3FDFFEA 		b	.L366
 3182              	.LVL166:
 3183              	.L405:
 3184              	.LBE38:
 3185              	.LBB39:
 3186              	.LM750:
 3187 1bf4 0060A0E3 		mov	r6, #0
 3188 1bf8 0670A0E1 		mov	r7, r6
 3189              	.LVL167:
 3190              	.L269:
 3191              	.LBB40:
 3192              	.LM751:
 3193 1bfc 063087E0 		add	r3, r7, r6
 3194 1c00 833086E0 		add	r3, r6, r3, asl #1
 3195 1c04 043083E0 		add	r3, r3, r4
 3196 1c08 0220D3E5 		ldrb	r2, [r3, #2]	@ zero_extendqisi2
 3197 1c0c 0310D3E5 		ldrb	r1, [r3, #3]	@ zero_extendqisi2
 3198 1c10 04C0D3E5 		ldrb	ip, [r3, #4]	@ zero_extendqisi2
 3199 1c14 0500D3E5 		ldrb	r0, [r3, #5]	@ zero_extendqisi2
 3200 1c18 012482E1 		orr	r2, r2, r1, asl #8
 3201 1c1c 0C2882E1 		orr	r2, r2, ip, asl #16
 3202 1c20 005C82E1 		orr	r5, r2, r0, asl #24
 3203              	.LVL168:
 3204 1c24 0500A0E1 		mov	r0, r5
 3205 1c28 FEFFFFEB 		bl	strlen
 3206 1c2c 200050E3 		cmp	r0, #32
 3207 1c30 1301009A 		bls	.L270
 3208              	.LVL169:
 3209              	.LM752:
 3210 1c34 0510A0E1 		mov	r1, r5
 3211 1c38 F6004BE2 		sub	r0, fp, #246
 3212 1c3c 2020A0E3 		mov	r2, #32
 3213 1c40 FEFFFFEB 		bl	memcpy
 3214              	.LM753:
 3215 1c44 0030A0E3 		mov	r3, #0
 3216 1c48 D7304BE5 		strb	r3, [fp, #-215]
 3217              	.L272:
 3218              	.LM754:
 3219 1c4c 063087E0 		add	r3, r7, r6
 3220 1c50 833086E0 		add	r3, r6, r3, asl #1
 3221 1c54 043083E0 		add	r3, r3, r4
 3222 1c58 043083E2 		add	r3, r3, #4
 3223 1c5c 0220D3E5 		ldrb	r2, [r3, #2]	@ zero_extendqisi2
 3224 1c60 0310D3E5 		ldrb	r1, [r3, #3]	@ zero_extendqisi2
 3225 1c64 04C0D3E5 		ldrb	ip, [r3, #4]	@ zero_extendqisi2
 3226 1c68 0500D3E5 		ldrb	r0, [r3, #5]	@ zero_extendqisi2
 3227 1c6c 012482E1 		orr	r2, r2, r1, asl #8
 3228 1c70 0C2882E1 		orr	r2, r2, ip, asl #16
 3229 1c74 005C82E1 		orr	r5, r2, r0, asl #24
 3230 1c78 0500A0E1 		mov	r0, r5
 3231 1c7c FEFFFFEB 		bl	strlen
 3232 1c80 400050E3 		cmp	r0, #64
 3233 1c84 FA00009A 		bls	.L273
 3234              	.LM755:
 3235 1c88 0510A0E1 		mov	r1, r5
 3236 1c8c D6004BE2 		sub	r0, fp, #214
 3237 1c90 2020A0E3 		mov	r2, #32
 3238 1c94 FEFFFFEB 		bl	memcpy
 3239              	.LM756:
 3240 1c98 0030A0E3 		mov	r3, #0
 3241 1c9c 97304BE5 		strb	r3, [fp, #-151]
 3242              	.L275:
 3243              	.LM757:
 3244 1ca0 063087E0 		add	r3, r7, r6
 3245 1ca4 833086E0 		add	r3, r6, r3, asl #1
 3246 1ca8 043083E0 		add	r3, r3, r4
 3247 1cac 083083E2 		add	r3, r3, #8
 3248 1cb0 0220D3E5 		ldrb	r2, [r3, #2]	@ zero_extendqisi2
 3249 1cb4 0310D3E5 		ldrb	r1, [r3, #3]	@ zero_extendqisi2
 3250 1cb8 04C0D3E5 		ldrb	ip, [r3, #4]	@ zero_extendqisi2
 3251 1cbc 0500D3E5 		ldrb	r0, [r3, #5]	@ zero_extendqisi2
 3252 1cc0 012482E1 		orr	r2, r2, r1, asl #8
 3253 1cc4 0C2882E1 		orr	r2, r2, ip, asl #16
 3254 1cc8 005C82E1 		orr	r5, r2, r0, asl #24
 3255 1ccc 0500A0E1 		mov	r0, r5
 3256 1cd0 FEFFFFEB 		bl	strlen
 3257 1cd4 200050E3 		cmp	r0, #32
 3258 1cd8 1302009A 		bls	.L276
 3259              	.LM758:
 3260 1cdc 0510A0E1 		mov	r1, r5
 3261 1ce0 96004BE2 		sub	r0, fp, #150
 3262 1ce4 2020A0E3 		mov	r2, #32
 3263 1ce8 FEFFFFEB 		bl	memcpy
 3264              	.LM759:
 3265 1cec 0030A0E3 		mov	r3, #0
 3266 1cf0 77304BE5 		strb	r3, [fp, #-119]
 3267              	.L278:
 3268              	.LM760:
 3269 1cf4 063087E0 		add	r3, r7, r6
 3270 1cf8 833086E0 		add	r3, r6, r3, asl #1
 3271 1cfc 042083E0 		add	r2, r3, r4
 3272 1d00 04C0D3E7 		ldrb	ip, [r3, r4]	@ zero_extendqisi2
 3273 1d04 0110D2E5 		ldrb	r1, [r2, #1]	@ zero_extendqisi2
 3274              	.LM761:
 3275 1d08 74401BE5 		ldr	r4, [fp, #-116]
 3276              	.LM762:
 3277 1d0c 0EE0D2E5 		ldrb	lr, [r2, #14]	@ zero_extendqisi2
 3278              	.LM763:
 3279 1d10 01C48CE1 		orr	ip, ip, r1, asl #8
 3280              	.LM764:
 3281 1d14 FF4404E2 		and	r4, r4, #-16777216
 3282 1d18 0030A0E3 		mov	r3, #0
 3283              	.LM765:
 3284 1d1c 8400A0E3 		mov	r0, #132
 3285 1d20 F8104BE2 		sub	r1, fp, #248
 3286 1d24 8320A0E3 		mov	r2, #131
 3287              	.LM766:
 3288 1d28 B8CF4BE1 		strh	ip, [fp, #-248]	@ movhi
 3289              	.LM767:
 3290 1d2c 76E04BE5 		strb	lr, [fp, #-118]
 3291              	.LM768:
 3292 1d30 75304BE5 		strb	r3, [fp, #-117]
 3293 1d34 74400BE5 		str	r4, [fp, #-116]
 3294              	.LM769:
 3295 1d38 FEFFFFEB 		bl	aciTxSendPacket
 3296 1d3c 24FEFFEA 		b	.L279
 3297              	.LVL170:
 3298              	.L226:
 3299              	.LBE40:
 3300              	.LBE39:
 3301              	.LBE37:
 3302              	.LM770:
 3303 1d40 040055E3 		cmp	r5, #4
 3304 1d44 A600000A 		beq	.L208
 3305 1d48 050055E3 		cmp	r5, #5
 3306 1d4c 5CFDFF1A 		bne	.L366
 3307              	.LBB41:
 3308              	.LM771:
 3309 1d50 A118A0E1 		mov	r1, r1, lsr #17
 3310 1d54 000051E3 		cmp	r1, #0
 3311 1d58 F4A39FC5 		ldrgt	sl, .L408
 3312 1d5c 019081C2 		addgt	r9, r1, #1
 3313              	.LM772:
 3314 1d60 0020A0C3 		movgt	r2, #0
 3315 1d64 0170A0C3 		movgt	r7, #1
 3316              	.LM773:
 3317 1d68 55FDFFDA 		ble	.L366
 3318              	.LVL171:
 3319              	.L317:
 3320              	.LBB42:
 3321              	.LM774:
 3322 1d6c 8220A0E1 		mov	r2, r2, asl #1
 3323 1d70 0A3082E0 		add	r3, r2, sl
 3324 1d74 0210DAE7 		ldrb	r1, [sl, r2]	@ zero_extendqisi2
 3325              	.LM775:
 3326 1d78 04249FE5 		ldr	r2, .L408+48
 3327              	.LM776:
 3328 1d7c 0100D3E5 		ldrb	r0, [r3, #1]	@ zero_extendqisi2
 3329              	.LM777:
 3330 1d80 00C092E5 		ldr	ip, [r2, #0]
 3331              	.LM778:
 3332 1d84 001481E1 		orr	r1, r1, r0, asl #8
 3333              	.LM779:
 3334 1d88 00005CE3 		cmp	ip, #0
 3335              	.LM780:
 3336 1d8c BE124BE1 		strh	r1, [fp, #-46]	@ movhi
 3337              	.LM781:
 3338 1d90 130000DA 		ble	.L318
 3339              	.LM782:
 3340 1d94 EC839FE5 		ldr	r8, .L408+52
 3341 1d98 0030D8E5 		ldrb	r3, [r8, #0]	@ zero_extendqisi2
 3342 1d9c 0120D8E5 		ldrb	r2, [r8, #1]	@ zero_extendqisi2
 3343 1da0 023483E1 		orr	r3, r3, r2, asl #8
 3344 1da4 010053E1 		cmp	r3, r1
 3345 1da8 0050A013 		movne	r5, #0
 3346              	.LVL172:
 3347 1dac 0500A011 		movne	r0, r5
 3348 1db0 0500001A 		bne	.L322
 3349              	.LVL173:
 3350 1db4 130000EA 		b	.L406
 3351              	.L323:
 3352 1db8 0120D3E5 		ldrb	r2, [r3, #1]	@ zero_extendqisi2
 3353 1dbc 0830D0E7 		ldrb	r3, [r0, r8]	@ zero_extendqisi2
 3354 1dc0 023483E1 		orr	r3, r3, r2, asl #8
 3355 1dc4 030051E1 		cmp	r1, r3
 3356 1dc8 1000000A 		beq	.L324
 3357              	.L322:
 3358              	.LM783:
 3359 1dcc 015085E2 		add	r5, r5, #1
 3360 1dd0 130080E2 		add	r0, r0, #19
 3361 1dd4 05005CE1 		cmp	ip, r5
 3362              	.LM784:
 3363 1dd8 8561A0E1 		mov	r6, r5, asl #3
 3364 1ddc 083080E0 		add	r3, r0, r8
 3365              	.LM785:
 3366 1de0 F4FFFF1A 		bne	.L323
 3367              	.LVL174:
 3368              	.L318:
 3369              	.LM786:
 3370 1de4 8800A0E3 		mov	r0, #136
 3371 1de8 2E104BE2 		sub	r1, fp, #46
 3372 1dec 0220A0E3 		mov	r2, #2
 3373 1df0 FEFFFFEB 		bl	aciTxSendPacket
 3374              	.L334:
 3375              	.LBB43:
 3376              	.LM787:
 3377 1df4 0720A0E1 		mov	r2, r7
 3378 1df8 017087E2 		add	r7, r7, #1
 3379              	.LBE43:
 3380              	.LBE42:
 3381              	.LM788:
 3382 1dfc 070059E1 		cmp	r9, r7
 3383 1e00 D9FFFF1A 		bne	.L317
 3384 1e04 2EFDFFEA 		b	.L366
 3385              	.LVL175:
 3386              	.L406:
 3387              	.LBB44:
 3388              	.LM789:
 3389 1e08 0050A0E3 		mov	r5, #0
 3390 1e0c 0560A0E1 		mov	r6, r5
 3391              	.LVL176:
 3392              	.L324:
 3393              	.LBB45:
 3394              	.LM790:
 3395 1e10 053086E0 		add	r3, r6, r5
 3396 1e14 833085E0 		add	r3, r5, r3, asl #1
 3397 1e18 083083E0 		add	r3, r3, r8
 3398 1e1c 0220D3E5 		ldrb	r2, [r3, #2]	@ zero_extendqisi2
 3399 1e20 0310D3E5 		ldrb	r1, [r3, #3]	@ zero_extendqisi2
 3400 1e24 04C0D3E5 		ldrb	ip, [r3, #4]	@ zero_extendqisi2
 3401 1e28 0500D3E5 		ldrb	r0, [r3, #5]	@ zero_extendqisi2
 3402 1e2c 012482E1 		orr	r2, r2, r1, asl #8
 3403 1e30 0C2882E1 		orr	r2, r2, ip, asl #16
 3404 1e34 004C82E1 		orr	r4, r2, r0, asl #24
 3405              	.LVL177:
 3406 1e38 0400A0E1 		mov	r0, r4
 3407 1e3c FEFFFFEB 		bl	strlen
 3408 1e40 200050E3 		cmp	r0, #32
 3409 1e44 C401009A 		bls	.L325
 3410              	.LVL178:
 3411              	.LM791:
 3412 1e48 0410A0E1 		mov	r1, r4
 3413 1e4c F6004BE2 		sub	r0, fp, #246
 3414 1e50 2020A0E3 		mov	r2, #32
 3415 1e54 FEFFFFEB 		bl	memcpy
 3416              	.LM792:
 3417 1e58 0030A0E3 		mov	r3, #0
 3418 1e5c D7304BE5 		strb	r3, [fp, #-215]
 3419              	.L327:
 3420              	.LM793:
 3421 1e60 053086E0 		add	r3, r6, r5
 3422 1e64 833085E0 		add	r3, r5, r3, asl #1
 3423 1e68 083083E0 		add	r3, r3, r8
 3424 1e6c 043083E2 		add	r3, r3, #4
 3425 1e70 0220D3E5 		ldrb	r2, [r3, #2]	@ zero_extendqisi2
 3426 1e74 0310D3E5 		ldrb	r1, [r3, #3]	@ zero_extendqisi2
 3427 1e78 04C0D3E5 		ldrb	ip, [r3, #4]	@ zero_extendqisi2
 3428 1e7c 0500D3E5 		ldrb	r0, [r3, #5]	@ zero_extendqisi2
 3429 1e80 012482E1 		orr	r2, r2, r1, asl #8
 3430 1e84 0C2882E1 		orr	r2, r2, ip, asl #16
 3431 1e88 004C82E1 		orr	r4, r2, r0, asl #24
 3432 1e8c 0400A0E1 		mov	r0, r4
 3433 1e90 FEFFFFEB 		bl	strlen
 3434 1e94 400050E3 		cmp	r0, #64
 3435 1e98 AB01009A 		bls	.L328
 3436              	.LM794:
 3437 1e9c 0410A0E1 		mov	r1, r4
 3438 1ea0 D6004BE2 		sub	r0, fp, #214
 3439 1ea4 2020A0E3 		mov	r2, #32
 3440 1ea8 FEFFFFEB 		bl	memcpy
 3441              	.LM795:
 3442 1eac 0030A0E3 		mov	r3, #0
 3443 1eb0 97304BE5 		strb	r3, [fp, #-151]
 3444              	.L330:
 3445              	.LM796:
 3446 1eb4 053086E0 		add	r3, r6, r5
 3447 1eb8 833085E0 		add	r3, r5, r3, asl #1
 3448 1ebc 083083E0 		add	r3, r3, r8
 3449 1ec0 083083E2 		add	r3, r3, #8
 3450 1ec4 0220D3E5 		ldrb	r2, [r3, #2]	@ zero_extendqisi2
 3451 1ec8 0310D3E5 		ldrb	r1, [r3, #3]	@ zero_extendqisi2
 3452 1ecc 04C0D3E5 		ldrb	ip, [r3, #4]	@ zero_extendqisi2
 3453 1ed0 0500D3E5 		ldrb	r0, [r3, #5]	@ zero_extendqisi2
 3454 1ed4 012482E1 		orr	r2, r2, r1, asl #8
 3455 1ed8 0C2882E1 		orr	r2, r2, ip, asl #16
 3456 1edc 004C82E1 		orr	r4, r2, r0, asl #24
 3457 1ee0 0400A0E1 		mov	r0, r4
 3458 1ee4 FEFFFFEB 		bl	strlen
 3459 1ee8 200050E3 		cmp	r0, #32
 3460 1eec 9201009A 		bls	.L331
 3461              	.LM797:
 3462 1ef0 0410A0E1 		mov	r1, r4
 3463 1ef4 96004BE2 		sub	r0, fp, #150
 3464 1ef8 2020A0E3 		mov	r2, #32
 3465 1efc FEFFFFEB 		bl	memcpy
 3466              	.LM798:
 3467 1f00 0030A0E3 		mov	r3, #0
 3468 1f04 77304BE5 		strb	r3, [fp, #-119]
 3469              	.L333:
 3470              	.LM799:
 3471 1f08 053086E0 		add	r3, r6, r5
 3472 1f0c 833085E0 		add	r3, r5, r3, asl #1
 3473 1f10 082083E0 		add	r2, r3, r8
 3474 1f14 08C0D3E7 		ldrb	ip, [r3, r8]	@ zero_extendqisi2
 3475 1f18 0110D2E5 		ldrb	r1, [r2, #1]	@ zero_extendqisi2
 3476              	.LM800:
 3477 1f1c 74401BE5 		ldr	r4, [fp, #-116]
 3478              	.LM801:
 3479 1f20 0EE0D2E5 		ldrb	lr, [r2, #14]	@ zero_extendqisi2
 3480              	.LM802:
 3481 1f24 01C48CE1 		orr	ip, ip, r1, asl #8
 3482              	.LM803:
 3483 1f28 FF4404E2 		and	r4, r4, #-16777216
 3484 1f2c 0030A0E3 		mov	r3, #0
 3485              	.LM804:
 3486 1f30 8700A0E3 		mov	r0, #135
 3487 1f34 F8104BE2 		sub	r1, fp, #248
 3488 1f38 8320A0E3 		mov	r2, #131
 3489              	.LM805:
 3490 1f3c B8CF4BE1 		strh	ip, [fp, #-248]	@ movhi
 3491              	.LM806:
 3492 1f40 76E04BE5 		strb	lr, [fp, #-118]
 3493              	.LM807:
 3494 1f44 75304BE5 		strb	r3, [fp, #-117]
 3495 1f48 74400BE5 		str	r4, [fp, #-116]
 3496              	.LM808:
 3497 1f4c FEFFFFEB 		bl	aciTxSendPacket
 3498 1f50 A7FFFFEA 		b	.L334
 3499              	.LVL179:
 3500              	.L207:
 3501              	.LBE45:
 3502              	.LBE44:
 3503              	.LBB46:
 3504              	.LM809:
 3505 1f54 58329FE5 		ldr	r3, .L408+96
 3506 1f58 000093E5 		ldr	r0, [r3, #0]
 3507 1f5c 8060A0E1 		mov	r6, r0, asl #1
 3508 1f60 8630A0E1 		mov	r3, r6, asl #1
 3509 1f64 083083E2 		add	r3, r3, #8
 3510              	.LBE46:
 3511              	.LM810:
 3512 1f68 0D70A0E1 		mov	r7, sp
 3513              	.LBB47:
 3514              	.LM811:
 3515 1f6c 0DD063E0 		rsb	sp, r3, sp
 3516 1f70 2D21A0E1 		mov	r2, sp, lsr #2
 3517 1f74 02C1A0E1 		mov	ip, r2, asl #2
 3518              	.LM812:
 3519 1f78 000050E3 		cmp	r0, #0
 3520              	.LM813:
 3521 1f7c B000CCE1 		strh	r0, [ip, #0]	@ movhi
 3522              	.LM814:
 3523 1f80 0F0000DA 		ble	.L254
 3524 1f84 0040A0E3 		mov	r4, #0
 3525              	.LVL180:
 3526 1f88 28929FE5 		ldr	r9, .L408+100
 3527 1f8c 0150A0E3 		mov	r5, #1
 3528              	.LVL181:
 3529 1f90 04E0A0E1 		mov	lr, r4
 3530              	.LVL182:
 3531              	.L256:
 3532              	.LM815:
 3533 1f94 09308EE0 		add	r3, lr, r9
 3534 1f98 0110D3E5 		ldrb	r1, [r3, #1]	@ zero_extendqisi2
 3535 1f9c 0920DEE7 		ldrb	r2, [lr, r9]	@ zero_extendqisi2
 3536 1fa0 0538A0E1 		mov	r3, r5, asl #16
 3537              	.LM816:
 3538 1fa4 014084E2 		add	r4, r4, #1
 3539              	.LM817:
 3540 1fa8 012482E1 		orr	r2, r2, r1, asl #8
 3541 1fac A337A0E1 		mov	r3, r3, lsr #15
 3542              	.LM818:
 3543 1fb0 040050E1 		cmp	r0, r4
 3544              	.LM819:
 3545 1fb4 BC2083E1 		strh	r2, [r3, ip]	@ movhi
 3546              	.LM820:
 3547 1fb8 13E08EE2 		add	lr, lr, #19
 3548 1fbc 015085E2 		add	r5, r5, #1
 3549 1fc0 F3FFFF1A 		bne	.L256
 3550              	.LVL183:
 3551              	.L254:
 3552              	.LM821:
 3553 1fc4 022086E2 		add	r2, r6, #2
 3554 1fc8 0228A0E1 		mov	r2, r2, asl #16
 3555 1fcc 0C10A0E1 		mov	r1, ip
 3556              	.LVL184:
 3557 1fd0 2228A0E1 		mov	r2, r2, lsr #16
 3558 1fd4 8000A0E3 		mov	r0, #128
 3559 1fd8 FEFFFFEB 		bl	aciTxSendPacket
 3560              	.LVL185:
 3561 1fdc 07D0A0E1 		mov	sp, r7
 3562 1fe0 B7FCFFEA 		b	.L366
 3563              	.LVL186:
 3564              	.L208:
 3565              	.LBE47:
 3566              	.LBB48:
 3567              	.LM822:
 3568 1fe4 7C319FE5 		ldr	r3, .L408+20
 3569 1fe8 000093E5 		ldr	r0, [r3, #0]
 3570 1fec 8070A0E1 		mov	r7, r0, asl #1
 3571 1ff0 8730A0E1 		mov	r3, r7, asl #1
 3572 1ff4 083083E2 		add	r3, r3, #8
 3573              	.LBE48:
 3574              	.LM823:
 3575 1ff8 0D80A0E1 		mov	r8, sp
 3576              	.LBB49:
 3577              	.LM824:
 3578 1ffc 0DD063E0 		rsb	sp, r3, sp
 3579 2000 2D21A0E1 		mov	r2, sp, lsr #2
 3580 2004 02C1A0E1 		mov	ip, r2, asl #2
 3581              	.LM825:
 3582 2008 000050E3 		cmp	r0, #0
 3583              	.LM826:
 3584 200c B000CCE1 		strh	r0, [ip, #0]	@ movhi
 3585              	.LM827:
 3586 2010 0F0000DA 		ble	.L280
 3587 2014 0050A0E3 		mov	r5, #0
 3588              	.LVL187:
 3589 2018 44419FE5 		ldr	r4, .L408+16
 3590              	.LVL188:
 3591 201c 0160A0E3 		mov	r6, #1
 3592 2020 05E0A0E1 		mov	lr, r5
 3593              	.LVL189:
 3594              	.L282:
 3595              	.LM828:
 3596 2024 04308EE0 		add	r3, lr, r4
 3597 2028 0110D3E5 		ldrb	r1, [r3, #1]	@ zero_extendqisi2
 3598 202c 0420DEE7 		ldrb	r2, [lr, r4]	@ zero_extendqisi2
 3599 2030 0638A0E1 		mov	r3, r6, asl #16
 3600              	.LM829:
 3601 2034 015085E2 		add	r5, r5, #1
 3602              	.LM830:
 3603 2038 012482E1 		orr	r2, r2, r1, asl #8
 3604 203c A337A0E1 		mov	r3, r3, lsr #15
 3605              	.LM831:
 3606 2040 050050E1 		cmp	r0, r5
 3607              	.LM832:
 3608 2044 BC2083E1 		strh	r2, [r3, ip]	@ movhi
 3609              	.LM833:
 3610 2048 13E08EE2 		add	lr, lr, #19
 3611 204c 016086E2 		add	r6, r6, #1
 3612 2050 F3FFFF1A 		bne	.L282
 3613              	.LVL190:
 3614              	.L280:
 3615              	.LM834:
 3616 2054 022087E2 		add	r2, r7, #2
 3617 2058 0228A0E1 		mov	r2, r2, asl #16
 3618 205c 0C10A0E1 		mov	r1, ip
 3619              	.LVL191:
 3620 2060 2228A0E1 		mov	r2, r2, lsr #16
 3621 2064 8300A0E3 		mov	r0, #131
 3622 2068 FEFFFFEB 		bl	aciTxSendPacket
 3623              	.LVL192:
 3624 206c 08D0A0E1 		mov	sp, r8
 3625 2070 93FCFFEA 		b	.L366
 3626              	.LVL193:
 3627              	.L273:
 3628              	.LBE49:
 3629              	.LBB50:
 3630              	.LBB51:
 3631              	.LM835:
 3632 2074 0510A0E1 		mov	r1, r5
 3633 2078 D6004BE2 		sub	r0, fp, #214
 3634 207c FEFFFFEB 		bl	strcpy
 3635 2080 06FFFFEA 		b	.L275
 3636              	.L270:
 3637              	.LM836:
 3638 2084 0510A0E1 		mov	r1, r5
 3639 2088 F6004BE2 		sub	r0, fp, #246
 3640 208c FEFFFFEB 		bl	strcpy
 3641 2090 EDFEFFEA 		b	.L272
 3642              	.LVL194:
 3643              	.L205:
 3644              	.LBE51:
 3645              	.LBE50:
 3646              	.LM837:
 3647 2094 A118A0E1 		mov	r1, r1, lsr #17
 3648 2098 000051E3 		cmp	r1, #0
 3649 209c 88FCFFDA 		ble	.L366
 3650 20a0 011081E2 		add	r1, r1, #1
 3651 20a4 A8A09FE5 		ldr	sl, .L408
 3652 20a8 04819FE5 		ldr	r8, .L408+96
 3653 20ac FC160BE5 		str	r1, [fp, #-1788]
 3654              	.LM838:
 3655 20b0 0570A0E1 		mov	r7, r5
 3656 20b4 0020A0E3 		mov	r2, #0
 3657              	.LVL195:
 3658              	.L236:
 3659              	.LBB52:
 3660              	.LM839:
 3661 20b8 8220A0E1 		mov	r2, r2, asl #1
 3662 20bc 0A3082E0 		add	r3, r2, sl
 3663 20c0 0100D3E5 		ldrb	r0, [r3, #1]	@ zero_extendqisi2
 3664 20c4 0210DAE7 		ldrb	r1, [sl, r2]	@ zero_extendqisi2
 3665              	.LM840:
 3666 20c8 00C098E5 		ldr	ip, [r8, #0]
 3667              	.LM841:
 3668 20cc 000481E1 		orr	r0, r1, r0, asl #8
 3669              	.LM842:
 3670 20d0 00005CE3 		cmp	ip, #0
 3671              	.LM843:
 3672 20d4 BE024BE1 		strh	r0, [fp, #-46]	@ movhi
 3673              	.LM844:
 3674 20d8 130000DA 		ble	.L237
 3675              	.LM845:
 3676 20dc D4909FE5 		ldr	r9, .L408+100
 3677 20e0 0030D9E5 		ldrb	r3, [r9, #0]	@ zero_extendqisi2
 3678 20e4 0120D9E5 		ldrb	r2, [r9, #1]	@ zero_extendqisi2
 3679 20e8 023483E1 		orr	r3, r3, r2, asl #8
 3680 20ec 030050E1 		cmp	r0, r3
 3681 20f0 0050A013 		movne	r5, #0
 3682              	.LVL196:
 3683 20f4 0510A011 		movne	r1, r5
 3684 20f8 0500001A 		bne	.L241
 3685              	.LVL197:
 3686 20fc 400000EA 		b	.L407
 3687              	.L242:
 3688 2100 0120D3E5 		ldrb	r2, [r3, #1]	@ zero_extendqisi2
 3689 2104 0930D1E7 		ldrb	r3, [r1, r9]	@ zero_extendqisi2
 3690 2108 023483E1 		orr	r3, r3, r2, asl #8
 3691 210c 030050E1 		cmp	r0, r3
 3692 2110 3D00000A 		beq	.L243
 3693              	.L241:
 3694              	.LM846:
 3695 2114 015085E2 		add	r5, r5, #1
 3696 2118 131081E2 		add	r1, r1, #19
 3697 211c 0C0055E1 		cmp	r5, ip
 3698              	.LM847:
 3699 2120 8561A0E1 		mov	r6, r5, asl #3
 3700 2124 093081E0 		add	r3, r1, r9
 3701              	.LM848:
 3702 2128 F4FFFF1A 		bne	.L242
 3703              	.LVL198:
 3704              	.L237:
 3705              	.LM849:
 3706 212c 8200A0E3 		mov	r0, #130
 3707 2130 2E104BE2 		sub	r1, fp, #46
 3708 2134 0220A0E3 		mov	r2, #2
 3709 2138 FEFFFFEB 		bl	aciTxSendPacket
 3710              	.L253:
 3711              	.LBE52:
 3712              	.LM850:
 3713 213c FC161BE5 		ldr	r1, [fp, #-1788]
 3714              	.LBB53:
 3715              	.LBB54:
 3716              	.LM851:
 3717 2140 0720A0E1 		mov	r2, r7
 3718 2144 017087E2 		add	r7, r7, #1
 3719              	.LBE54:
 3720              	.LBE53:
 3721              	.LM852:
 3722 2148 010057E1 		cmp	r7, r1
 3723 214c D9FFFF1A 		bne	.L236
 3724 2150 5BFCFFEA 		b	.L366
 3725              	.L409:
 3726              		.align	2
 3727              	.L408:
 3728 2154 00000000 		.word	aciRxDataBuffer
 3729 2158 00000000 		.word	aciCmdPacketMagicCode
 3730 215c 00000000 		.word	aciCmdPacketWithACK
 3731 2160 00000000 		.word	aciCmdPacketSelect
 3732 2164 00000000 		.word	aciListCmd
 3733 2168 00000000 		.word	aciListCmdCount
 3734 216c 00000000 		.word	aciCmdPacketContentBufferLength
 3735 2170 00000000 		.word	aciCmdPacketSelectLength
 3736 2174 00000000 		.word	aciVarPacketContentBufferLength
 3737 2178 00000000 		.word	aciVarPacketUpdated
 3738 217c 00000000 		.word	aciParPacketSelect
 3739 2180 00000000 		.word	aciParPacketMagicCode
 3740 2184 00000000 		.word	aciListParCount
 3741 2188 00000000 		.word	aciListPar
 3742 218c 00000000 		.word	aciParPacketContentBufferLength
 3743 2190 00000000 		.word	aciParPacketSelectLength
 3744 2194 00000000 		.word	aciCmdPacketContentBufferInvalidCnt
 3745 2198 00000000 		.word	aciCmdPacketContentBufferValid
 3746 219c 00000000 		.word	aciParPacketContentBufferInvalidCnt
 3747 21a0 00000000 		.word	aciParPacketContentBufferValid
 3748 21a4 00000000 		.word	aciHeartBeatTimeout
 3749 21a8 00000000 		.word	aciCmdPacketContentBuffer
 3750 21ac 01000000 		.word	aciRxDataBuffer+1
 3751 21b0 00000000 		.word	aciCmdPacketReceived
 3752 21b4 00000000 		.word	aciListVarCount
 3753 21b8 00000000 		.word	aciListVar
 3754 21bc 00000000 		.word	aciVarPacketTransmissionRate
 3755 21c0 00000000 		.word	aciParPacketContentBuffer
 3756 21c4 00000000 		.word	aciParamPacketReceived
 3757 21c8 00000000 		.word	aciMagicCodeVar
 3758 21cc 00000000 		.word	aciMagicCodeCmd
 3759 21d0 00000000 		.word	aciMagicCodePar
 3760 21d4 00000000 		.word	aciRxDataBuffer
 3761 21d8 00000000 		.word	aciSendSingleStatus
 3762 21dc 00000000 		.word	aciReadParafromFlashCallback
 3763 21e0 00000000 		.word	aciSaveParaCallback
 3764 21e4 00000000 		.word	aciParamSaveIt
 3765 21e8 00000000 		.word	aciVarPacketSelect
 3766 21ec 00000000 		.word	aciVarPacketPtrList
 3767 21f0 00000000 		.word	aciVarPacketSelectLength
 3768 21f4 00000000 		.word	aciVarPacketMagicCode
 3769 21f8 00000000 		.word	aciVarPacketTypeList
 3770 21fc 00000000 		.word	aciInhibitPacketTransmission
 3771 2200 00000000 		.word	aciHeartBeatCnt
 3772              	.LVL199:
 3773              	.L407:
 3774              	.LBB55:
 3775              	.LM853:
 3776 2204 0050A0E3 		mov	r5, #0
 3777 2208 0560A0E1 		mov	r6, r5
 3778              	.LVL200:
 3779              	.L243:
 3780              	.LBB56:
 3781              	.LM854:
 3782 220c 053086E0 		add	r3, r6, r5
 3783 2210 833085E0 		add	r3, r5, r3, asl #1
 3784 2214 093083E0 		add	r3, r3, r9
 3785 2218 0220D3E5 		ldrb	r2, [r3, #2]	@ zero_extendqisi2
 3786 221c 0310D3E5 		ldrb	r1, [r3, #3]	@ zero_extendqisi2
 3787 2220 04C0D3E5 		ldrb	ip, [r3, #4]	@ zero_extendqisi2
 3788 2224 0500D3E5 		ldrb	r0, [r3, #5]	@ zero_extendqisi2
 3789 2228 012482E1 		orr	r2, r2, r1, asl #8
 3790 222c 0C2882E1 		orr	r2, r2, ip, asl #16
 3791 2230 004C82E1 		orr	r4, r2, r0, asl #24
 3792              	.LVL201:
 3793 2234 0400A0E1 		mov	r0, r4
 3794 2238 FEFFFFEB 		bl	strlen
 3795 223c 200050E3 		cmp	r0, #32
 3796 2240 4200009A 		bls	.L244
 3797              	.LVL202:
 3798              	.LM855:
 3799 2244 0410A0E1 		mov	r1, r4
 3800 2248 F6004BE2 		sub	r0, fp, #246
 3801 224c 2020A0E3 		mov	r2, #32
 3802 2250 FEFFFFEB 		bl	memcpy
 3803              	.LM856:
 3804 2254 0030A0E3 		mov	r3, #0
 3805 2258 D7304BE5 		strb	r3, [fp, #-215]
 3806              	.L246:
 3807              	.LM857:
 3808 225c 053086E0 		add	r3, r6, r5
 3809 2260 833085E0 		add	r3, r5, r3, asl #1
 3810 2264 093083E0 		add	r3, r3, r9
 3811 2268 043083E2 		add	r3, r3, #4
 3812 226c 0220D3E5 		ldrb	r2, [r3, #2]	@ zero_extendqisi2
 3813 2270 0310D3E5 		ldrb	r1, [r3, #3]	@ zero_extendqisi2
 3814 2274 04C0D3E5 		ldrb	ip, [r3, #4]	@ zero_extendqisi2
 3815 2278 0500D3E5 		ldrb	r0, [r3, #5]	@ zero_extendqisi2
 3816 227c 012482E1 		orr	r2, r2, r1, asl #8
 3817 2280 0C2882E1 		orr	r2, r2, ip, asl #16
 3818 2284 004C82E1 		orr	r4, r2, r0, asl #24
 3819 2288 0400A0E1 		mov	r0, r4
 3820 228c FEFFFFEB 		bl	strlen
 3821 2290 400050E3 		cmp	r0, #64
 3822 2294 3500009A 		bls	.L247
 3823              	.LM858:
 3824 2298 0410A0E1 		mov	r1, r4
 3825 229c D6004BE2 		sub	r0, fp, #214
 3826 22a0 2020A0E3 		mov	r2, #32
 3827 22a4 FEFFFFEB 		bl	memcpy
 3828              	.LM859:
 3829 22a8 0030A0E3 		mov	r3, #0
 3830 22ac 97304BE5 		strb	r3, [fp, #-151]
 3831              	.L249:
 3832              	.LM860:
 3833 22b0 053086E0 		add	r3, r6, r5
 3834 22b4 833085E0 		add	r3, r5, r3, asl #1
 3835 22b8 093083E0 		add	r3, r3, r9
 3836 22bc 083083E2 		add	r3, r3, #8
 3837 22c0 0220D3E5 		ldrb	r2, [r3, #2]	@ zero_extendqisi2
 3838 22c4 0310D3E5 		ldrb	r1, [r3, #3]	@ zero_extendqisi2
 3839 22c8 04C0D3E5 		ldrb	ip, [r3, #4]	@ zero_extendqisi2
 3840 22cc 0500D3E5 		ldrb	r0, [r3, #5]	@ zero_extendqisi2
 3841 22d0 012482E1 		orr	r2, r2, r1, asl #8
 3842 22d4 0C2882E1 		orr	r2, r2, ip, asl #16
 3843 22d8 004C82E1 		orr	r4, r2, r0, asl #24
 3844 22dc 0400A0E1 		mov	r0, r4
 3845 22e0 FEFFFFEB 		bl	strlen
 3846 22e4 200050E3 		cmp	r0, #32
 3847 22e8 1C00009A 		bls	.L250
 3848              	.LM861:
 3849 22ec 0410A0E1 		mov	r1, r4
 3850 22f0 96004BE2 		sub	r0, fp, #150
 3851 22f4 2020A0E3 		mov	r2, #32
 3852 22f8 FEFFFFEB 		bl	memcpy
 3853              	.LM862:
 3854 22fc 0030A0E3 		mov	r3, #0
 3855 2300 77304BE5 		strb	r3, [fp, #-119]
 3856              	.L252:
 3857              	.LM863:
 3858 2304 053086E0 		add	r3, r6, r5
 3859 2308 833085E0 		add	r3, r5, r3, asl #1
 3860 230c 092083E0 		add	r2, r3, r9
 3861 2310 09C0D3E7 		ldrb	ip, [r3, r9]	@ zero_extendqisi2
 3862 2314 0110D2E5 		ldrb	r1, [r2, #1]	@ zero_extendqisi2
 3863              	.LM864:
 3864 2318 74401BE5 		ldr	r4, [fp, #-116]
 3865              	.LM865:
 3866 231c 0EE0D2E5 		ldrb	lr, [r2, #14]	@ zero_extendqisi2
 3867              	.LM866:
 3868 2320 01C48CE1 		orr	ip, ip, r1, asl #8
 3869              	.LM867:
 3870 2324 FF4404E2 		and	r4, r4, #-16777216
 3871 2328 0030A0E3 		mov	r3, #0
 3872              	.LM868:
 3873 232c 8100A0E3 		mov	r0, #129
 3874 2330 F8104BE2 		sub	r1, fp, #248
 3875 2334 8320A0E3 		mov	r2, #131
 3876              	.LM869:
 3877 2338 B8CF4BE1 		strh	ip, [fp, #-248]	@ movhi
 3878              	.LM870:
 3879 233c 76E04BE5 		strb	lr, [fp, #-118]
 3880              	.LM871:
 3881 2340 75304BE5 		strb	r3, [fp, #-117]
 3882 2344 74400BE5 		str	r4, [fp, #-116]
 3883              	.LM872:
 3884 2348 FEFFFFEB 		bl	aciTxSendPacket
 3885 234c 7AFFFFEA 		b	.L253
 3886              	.L244:
 3887              	.LM873:
 3888 2350 0410A0E1 		mov	r1, r4
 3889 2354 F6004BE2 		sub	r0, fp, #246
 3890 2358 FEFFFFEB 		bl	strcpy
 3891 235c BEFFFFEA 		b	.L246
 3892              	.L250:
 3893              	.LM874:
 3894 2360 0410A0E1 		mov	r1, r4
 3895 2364 96004BE2 		sub	r0, fp, #150
 3896 2368 FEFFFFEB 		bl	strcpy
 3897 236c E4FFFFEA 		b	.L252
 3898              	.L247:
 3899              	.LM875:
 3900 2370 0410A0E1 		mov	r1, r4
 3901 2374 D6004BE2 		sub	r0, fp, #214
 3902 2378 FEFFFFEB 		bl	strcpy
 3903 237c CBFFFFEA 		b	.L249
 3904              	.LVL203:
 3905              	.L401:
 3906              	.LBE56:
 3907              	.LBE55:
 3908              	.LBB57:
 3909              	.LM876:
 3910 2380 0010A0E3 		mov	r1, #0
 3911 2384 0140A0E1 		mov	r4, r1
 3912              	.LVL204:
 3913 2388 34FDFFEA 		b	.L365
 3914              	.LVL205:
 3915              	.L218:
 3916              	.LBE57:
 3917              	.LM877:
 3918 238c C0111FE5 		ldr	r1, .L408+128
 3919 2390 0120D1E5 		ldrb	r2, [r1, #1]	@ zero_extendqisi2
 3920 2394 0030D1E5 		ldrb	r3, [r1, #0]	@ zero_extendqisi2
 3921 2398 023483E1 		orr	r3, r3, r2, asl #8
 3922 239c 013043E2 		sub	r3, r3, #1
 3923 23a0 0338A0E1 		mov	r3, r3, asl #16
 3924 23a4 D4211FE5 		ldr	r2, .L408+132
 3925 23a8 C337A0E1 		mov	r3, r3, asr #15
 3926 23ac 0080A0E3 		mov	r8, #0	@ movhi
 3927 23b0 B28083E1 		strh	r8, [r3, r2]	@ movhi
 3928 23b4 C2FBFFEA 		b	.L366
 3929              	.L213:
 3930              	.LM878:
 3931 23b8 C0211FE5 		ldr	r2, .L408+172
 3932              	.LM879:
 3933 23bc C8111FE5 		ldr	r1, .L408+168
 3934 23c0 0030A0E3 		mov	r3, #0
 3935              	.LM880:
 3936 23c4 B030C2E1 		strh	r3, [r2, #0]	@ movhi
 3937              	.LM881:
 3938 23c8 0030C1E5 		strb	r3, [r1, #0]
 3939 23cc BCFBFFEA 		b	.L366
 3940              	.L223:
 3941              	.LM882:
 3942 23d0 FC311FE5 		ldr	r3, .L408+136
 3943 23d4 003093E5 		ldr	r3, [r3, #0]
 3944 23d8 000053E3 		cmp	r3, #0
 3945 23dc B8FBFF0A 		beq	.L366
 3946              	.LM883:
 3947 23e0 0FE0A0E1 		mov	lr, pc
 3948 23e4 13FF2FE1 		bx	r3
 3949              	.LM884:
 3950 23e8 2C104BE2 		sub	r1, fp, #44
 3951              	.LM885:
 3952 23ec BC024BE1 		strh	r0, [fp, #-44]	@ movhi
 3953              	.LVL206:
 3954              	.LM886:
 3955 23f0 0220A0E3 		mov	r2, #2
 3956 23f4 0500A0E1 		mov	r0, r5
 3957 23f8 FEFFFFEB 		bl	aciTxSendPacket
 3958 23fc B0FBFFEA 		b	.L366
 3959              	.LVL207:
 3960              	.L222:
 3961              	.LM887:
 3962 2400 28321FE5 		ldr	r3, .L408+140
 3963 2404 003093E5 		ldr	r3, [r3, #0]
 3964 2408 000053E3 		cmp	r3, #0
 3965 240c ACFBFF0A 		beq	.L366
 3966              	.LM888:
 3967 2410 0FE0A0E1 		mov	lr, pc
 3968 2414 13FF2FE1 		bx	r3
 3969              	.LM889:
 3970 2418 3C321FE5 		ldr	r3, .L408+144
 3971 241c 0120A0E3 		mov	r2, #1
 3972 2420 0020C3E5 		strb	r2, [r3, #0]
 3973 2424 A6FBFFEA 		b	.L366
 3974              	.LVL208:
 3975              	.L216:
 3976 2428 48621FE5 		ldr	r6, .L408+148
 3977 242c 48A21FE5 		ldr	sl, .L408+152
 3978 2430 40521FE5 		ldr	r5, .L408+164
 3979              	.LVL209:
 3980 2434 48821FE5 		ldr	r8, .L408+160
 3981 2438 50721FE5 		ldr	r7, .L408+156
 3982              	.LBB58:
 3983              	.LM890:
 3984 243c 0020A0E3 		mov	r2, #0
 3985              	.LVL210:
 3986              	.L355:
 3987 2440 824386E0 		add	r4, r6, r2, asl #7
 3988              	.LVL211:
 3989 2444 02E48AE0 		add	lr, sl, r2, asl #8
 3990 2448 02C385E0 		add	ip, r5, r2, asl #6
 3991 244c 0030A0E3 		mov	r3, #0
 3992              	.L353:
 3993              	.LBE58:
 3994              	.LM891:
 3995 2450 013083E2 		add	r3, r3, #1
 3996              	.LVL212:
 3997 2454 0338A0E1 		mov	r3, r3, asl #16
 3998              	.LM892:
 3999 2458 0010A0E3 		mov	r1, #0
 4000              	.LM893:
 4001 245c 010553E3 		cmp	r3, #4194304
 4002              	.LM894:
 4003 2460 B210C4E0 		strh	r1, [r4], #2	@ movhi
 4004              	.LM895:
 4005 2464 04108EE4 		str	r1, [lr], #4
 4006              	.LM896:
 4007 2468 0110CCE4 		strb	r1, [ip], #1
 4008              	.LM897:
 4009 246c 2338A0E1 		mov	r3, r3, lsr #16
 4010              	.LVL213:
 4011 2470 F6FFFF1A 		bne	.L353
 4012              	.LM898:
 4013 2474 0810C2E7 		strb	r1, [r2, r8]
 4014              	.LM899:
 4015 2478 0710C2E7 		strb	r1, [r2, r7]
 4016              	.LM900:
 4017 247c 012082E2 		add	r2, r2, #1
 4018 2480 030052E3 		cmp	r2, #3
 4019 2484 EDFFFF1A 		bne	.L355
 4020              	.LM901:
 4021 2488 94321FE5 		ldr	r3, .L408+168
 4022              	.LVL214:
 4023              	.LM902:
 4024 248c 94221FE5 		ldr	r2, .L408+172
 4025              	.LVL215:
 4026              	.LM903:
 4027 2490 0010C3E5 		strb	r1, [r3, #0]
 4028              	.LM904:
 4029 2494 B010C2E1 		strh	r1, [r2, #0]	@ movhi
 4030 2498 89FBFFEA 		b	.L366
 4031              	.LVL216:
 4032              	.L343:
 4033              	.LBB59:
 4034              	.LM905:
 4035 249c 014084E0 		add	r4, r4, r1
 4036              	.LVL217:
 4037 24a0 844081E0 		add	r4, r1, r4, asl #1
 4038 24a4 084084E0 		add	r4, r4, r8
 4039 24a8 0E30D4E5 		ldrb	r3, [r4, #14]	@ zero_extendqisi2
 4040              	.LM906:
 4041 24ac 71604BE2 		sub	r6, fp, #113
 4042              	.LM907:
 4043 24b0 0C4084E2 		add	r4, r4, #12
 4044              	.LM908:
 4045 24b4 2331A0E1 		mov	r3, r3, lsr #2
 4046              	.LM909:
 4047 24b8 0220A0E3 		mov	r2, #2
 4048 24bc 2E104BE2 		sub	r1, fp, #46
 4049              	.LVL218:
 4050 24c0 0600A0E1 		mov	r0, r6
 4051              	.LM910:
 4052 24c4 025083E0 		add	r5, r3, r2
 4053              	.LVL219:
 4054              	.LM911:
 4055 24c8 FEFFFFEB 		bl	memcpy
 4056              	.LM912:
 4057 24cc 0310D4E5 		ldrb	r1, [r4, #3]	@ zero_extendqisi2
 4058 24d0 0430D4E5 		ldrb	r3, [r4, #4]	@ zero_extendqisi2
 4059 24d4 0500D4E5 		ldrb	r0, [r4, #5]	@ zero_extendqisi2
 4060 24d8 0620D4E5 		ldrb	r2, [r4, #6]	@ zero_extendqisi2
 4061 24dc 031481E1 		orr	r1, r1, r3, asl #8
 4062 24e0 001881E1 		orr	r1, r1, r0, asl #16
 4063 24e4 021C81E1 		orr	r1, r1, r2, asl #24
 4064 24e8 6F004BE2 		sub	r0, fp, #111
 4065 24ec 022045E2 		sub	r2, r5, #2
 4066 24f0 FEFFFFEB 		bl	memcpy
 4067              	.LM913:
 4068 24f4 000055E3 		cmp	r5, #0
 4069 24f8 0600001A 		bne	.L404
 4070              	.LVL220:
 4071              	.L339:
 4072              	.LM914:
 4073 24fc 0030A0E3 		mov	r3, #0
 4074              	.LM915:
 4075 2500 0610A0E1 		mov	r1, r6
 4076              	.LVL221:
 4077 2504 8900A0E3 		mov	r0, #137
 4078 2508 0120A0E3 		mov	r2, #1
 4079              	.LM916:
 4080 250c 71304BE5 		strb	r3, [fp, #-113]
 4081              	.LM917:
 4082 2510 FEFFFFEB 		bl	aciTxSendPacket
 4083 2514 6AFBFFEA 		b	.L366
 4084              	.LVL222:
 4085              	.L404:
 4086              	.LM918:
 4087 2518 0610A0E1 		mov	r1, r6
 4088 251c 0520A0E1 		mov	r2, r5
 4089 2520 8900A0E3 		mov	r0, #137
 4090 2524 FEFFFFEB 		bl	aciTxSendPacket
 4091 2528 65FBFFEA 		b	.L366
 4092              	.LVL223:
 4093              	.L276:
 4094              	.LBE59:
 4095              	.LBB60:
 4096              	.LBB61:
 4097              	.LM919:
 4098 252c 0510A0E1 		mov	r1, r5
 4099 2530 96004BE2 		sub	r0, fp, #150
 4100 2534 FEFFFFEB 		bl	strcpy
 4101 2538 EDFDFFEA 		b	.L278
 4102              	.LVL224:
 4103              	.L331:
 4104              	.LBE61:
 4105              	.LBE60:
 4106              	.LBB62:
 4107              	.LBB63:
 4108              	.LM920:
 4109 253c 0410A0E1 		mov	r1, r4
 4110 2540 96004BE2 		sub	r0, fp, #150
 4111 2544 FEFFFFEB 		bl	strcpy
 4112 2548 6EFEFFEA 		b	.L333
 4113              	.L328:
 4114              	.LM921:
 4115 254c 0410A0E1 		mov	r1, r4
 4116 2550 D6004BE2 		sub	r0, fp, #214
 4117 2554 FEFFFFEB 		bl	strcpy
 4118 2558 55FEFFEA 		b	.L330
 4119              	.L325:
 4120              	.LM922:
 4121 255c 0410A0E1 		mov	r1, r4
 4122 2560 F6004BE2 		sub	r0, fp, #246
 4123 2564 FEFFFFEB 		bl	strcpy
 4124 2568 3CFEFFEA 		b	.L327
 4125              	.LBE63:
 4126              	.LBE62:
 4127              	.LBE41:
 4128              	.LFE13:
 4130              		.align	2
 4131              		.global	aciReceiveHandler
 4133              	aciReceiveHandler:
 4134              	.LFB14:
 4135              	.LM923:
 4136              		@ Function supports interworking.
 4137              		@ args = 0, pretend = 0, frame = 0
 4138              		@ frame_needed = 0, uses_anonymous_args = 0
 4139              	.LVL225:
 4140 256c F0402DE9 		stmfd	sp!, {r4, r5, r6, r7, lr}
 4141              	.LCFI25:
 4142              	.LM924:
 4143 2570 B8719FE5 		ldr	r7, .L437
 4144 2574 0030D7E5 		ldrb	r3, [r7, #0]	@ zero_extendqisi2
 4145              	.LM925:
 4146 2578 FF6000E2 		and	r6, r0, #255
 4147              	.LM926:
 4148 257c 080053E3 		cmp	r3, #8
 4149 2580 03F19F97 		ldrls	pc, [pc, r3, asl #2]
 4150 2584 120000EA 		b	.L434
 4151              		.align	2
 4152              	.L421:
 4153 2588 DC250000 		.word	.L412
 4154 258c 04270000 		.word	.L413
 4155 2590 F0260000 		.word	.L414
 4156 2594 C8260000 		.word	.L415
 4157 2598 A0260000 		.word	.L416
 4158 259c 50260000 		.word	.L417
 4159 25a0 00260000 		.word	.L418
 4160 25a4 EC250000 		.word	.L419
 4161 25a8 AC250000 		.word	.L420
 4162              	.LVL226:
 4163              	.L420:
 4164              	.LM927:
 4165 25ac 80019FE5 		ldr	r0, .L437+4
 4166              	.LM928:
 4167 25b0 80219FE5 		ldr	r2, .L437+8
 4168              	.LM929:
 4169 25b4 B030D0E1 		ldrh	r3, [r0, #0]
 4170              	.LM930:
 4171 25b8 B010D2E1 		ldrh	r1, [r2, #0]
 4172              	.LM931:
 4173 25bc 063483E1 		orr	r3, r3, r6, asl #8
 4174              	.LM932:
 4175 25c0 030051E1 		cmp	r1, r3
 4176              	.LM933:
 4177 25c4 B030C0E1 		strh	r3, [r0, #0]	@ movhi
 4178              	.LM934:
 4179 25c8 5200000A 		beq	.L436
 4180              	.LVL227:
 4181              	.L432:
 4182              	.LM935:
 4183 25cc 0030A0E3 		mov	r3, #0
 4184 25d0 0030C7E5 		strb	r3, [r7, #0]
 4185              	.L434:
 4186              	.LM936:
 4187 25d4 F040BDE8 		ldmfd	sp!, {r4, r5, r6, r7, lr}
 4188 25d8 1EFF2FE1 		bx	lr
 4189              	.L412:
 4190              	.LM937:
 4191 25dc 210056E3 		cmp	r6, #33
 4192              	.LM938:
 4193 25e0 0130A003 		moveq	r3, #1
 4194 25e4 0030C705 		streqb	r3, [r7, #0]
 4195 25e8 F9FFFFEA 		b	.L434
 4196              	.L419:
 4197              	.LM939:
 4198 25ec 40319FE5 		ldr	r3, .L437+4
 4199              	.LM940:
 4200 25f0 0820A0E3 		mov	r2, #8
 4201              	.LM941:
 4202 25f4 B060C3E1 		strh	r6, [r3, #0]	@ movhi
 4203              	.LM942:
 4204 25f8 0020C7E5 		strb	r2, [r7, #0]
 4205 25fc F4FFFFEA 		b	.L434
 4206              	.L418:
 4207              	.LM943:
 4208 2600 30519FE5 		ldr	r5, .L437+8
 4209 2604 0610A0E1 		mov	r1, r6
 4210 2608 B000D5E1 		ldrh	r0, [r5, #0]
 4211 260c FEFFFFEB 		bl	aciCrcUpdate
 4212              	.LM944:
 4213 2610 24419FE5 		ldr	r4, .L437+12
 4214 2614 B0C0D4E1 		ldrh	ip, [r4, #0]
 4215              	.LM945:
 4216 2618 20319FE5 		ldr	r3, .L437+16
 4217              	.LM946:
 4218 261c 01208CE2 		add	r2, ip, #1
 4219              	.LM947:
 4220 2620 B010D3E1 		ldrh	r1, [r3, #0]
 4221              	.LM948:
 4222 2624 0228A0E1 		mov	r2, r2, asl #16
 4223 2628 2228A0E1 		mov	r2, r2, lsr #16
 4224 262c 10319FE5 		ldr	r3, .L437+20
 4225              	.LM949:
 4226 2630 020051E1 		cmp	r1, r2
 4227              	.LM950:
 4228 2634 B000C5E1 		strh	r0, [r5, #0]	@ movhi
 4229              	.LM951:
 4230 2638 0C60C3E7 		strb	r6, [r3, ip]
 4231 263c B020C4E1 		strh	r2, [r4, #0]	@ movhi
 4232              	.LM952:
 4233 2640 E3FFFF1A 		bne	.L434
 4234              	.L435:
 4235              	.LM953:
 4236 2644 0730A0E3 		mov	r3, #7
 4237 2648 0030C7E5 		strb	r3, [r7, #0]
 4238 264c E0FFFFEA 		b	.L434
 4239              	.LVL228:
 4240              	.L417:
 4241              	.LM954:
 4242 2650 E8309FE5 		ldr	r3, .L437+16
 4243 2654 B010D3E1 		ldrh	r1, [r3, #0]
 4244 2658 062481E1 		orr	r2, r1, r6, asl #8
 4245              	.LM955:
 4246 265c 060D52E3 		cmp	r2, #384
 4247              	.LM956:
 4248 2660 B020C3E1 		strh	r2, [r3, #0]	@ movhi
 4249 2664 065481E1 		orr	r5, r1, r6, asl #8
 4250              	.LM957:
 4251 2668 D7FFFF8A 		bhi	.L432
 4252              	.LM958:
 4253 266c C4409FE5 		ldr	r4, .L437+8
 4254 2670 0610A0E1 		mov	r1, r6
 4255 2674 B000D4E1 		ldrh	r0, [r4, #0]
 4256 2678 FEFFFFEB 		bl	aciCrcUpdate
 4257              	.LM959:
 4258 267c B8309FE5 		ldr	r3, .L437+12
 4259              	.LM960:
 4260 2680 000055E3 		cmp	r5, #0
 4261              	.LM961:
 4262 2684 0020A0E3 		mov	r2, #0	@ movhi
 4263 2688 B020C3E1 		strh	r2, [r3, #0]	@ movhi
 4264              	.LM962:
 4265 268c 0630A013 		movne	r3, #6
 4266              	.LM963:
 4267 2690 B000C4E1 		strh	r0, [r4, #0]	@ movhi
 4268              	.LM964:
 4269 2694 0030C715 		strneb	r3, [r7, #0]
 4270              	.LM965:
 4271 2698 CDFFFF1A 		bne	.L434
 4272 269c E8FFFFEA 		b	.L435
 4273              	.LVL229:
 4274              	.L416:
 4275              	.LM966:
 4276 26a0 98309FE5 		ldr	r3, .L437+16
 4277              	.LM967:
 4278 26a4 8C409FE5 		ldr	r4, .L437+8
 4279              	.LM968:
 4280 26a8 B060C3E1 		strh	r6, [r3, #0]	@ movhi
 4281              	.LM969:
 4282 26ac B000D4E1 		ldrh	r0, [r4, #0]
 4283 26b0 0610A0E1 		mov	r1, r6
 4284 26b4 FEFFFFEB 		bl	aciCrcUpdate
 4285              	.LM970:
 4286 26b8 0530A0E3 		mov	r3, #5
 4287              	.LM971:
 4288 26bc B000C4E1 		strh	r0, [r4, #0]	@ movhi
 4289              	.LM972:
 4290 26c0 0030C7E5 		strb	r3, [r7, #0]
 4291 26c4 C2FFFFEA 		b	.L434
 4292              	.LVL230:
 4293              	.L415:
 4294              	.LM973:
 4295 26c8 78309FE5 		ldr	r3, .L437+24
 4296              	.LM974:
 4297 26cc 0610A0E1 		mov	r1, r6
 4298              	.LM975:
 4299 26d0 0060C3E5 		strb	r6, [r3, #0]
 4300              	.LM976:
 4301 26d4 FF00A0E3 		mov	r0, #255
 4302 26d8 FEFFFFEB 		bl	aciCrcUpdate
 4303 26dc 54309FE5 		ldr	r3, .L437+8
 4304              	.LM977:
 4305 26e0 0420A0E3 		mov	r2, #4
 4306              	.LM978:
 4307 26e4 B000C3E1 		strh	r0, [r3, #0]	@ movhi
 4308              	.LM979:
 4309 26e8 0020C7E5 		strb	r2, [r7, #0]
 4310 26ec B8FFFFEA 		b	.L434
 4311              	.LVL231:
 4312              	.L414:
 4313              	.LM980:
 4314 26f0 210056E3 		cmp	r6, #33
 4315              	.LM981:
 4316 26f4 0330A003 		moveq	r3, #3
 4317 26f8 0030C705 		streqb	r3, [r7, #0]
 4318              	.LM982:
 4319 26fc B2FFFF1A 		bne	.L432
 4320 2700 B3FFFFEA 		b	.L434
 4321              	.L413:
 4322              	.LM983:
 4323 2704 230056E3 		cmp	r6, #35
 4324              	.LM984:
 4325 2708 0230A003 		moveq	r3, #2
 4326 270c 0030C705 		streqb	r3, [r7, #0]
 4327              	.LM985:
 4328 2710 ADFFFF1A 		bne	.L432
 4329 2714 AEFFFFEA 		b	.L434
 4330              	.LVL232:
 4331              	.L436:
 4332              	.LM986:
 4333 2718 28309FE5 		ldr	r3, .L437+24
 4334 271c 1C209FE5 		ldr	r2, .L437+16
 4335 2720 0000D3E5 		ldrb	r0, [r3, #0]	@ zero_extendqisi2
 4336 2724 B010D2E1 		ldrh	r1, [r2, #0]
 4337 2728 FEFFFFEB 		bl	aciRxHandleMessage
 4338 272c A6FFFFEA 		b	.L432
 4339              	.L438:
 4340              		.align	2
 4341              	.L437:
 4342 2730 73000000 		.word	aciRxState.2760
 4343 2734 6C000000 		.word	aciRxReceivedCrc.2764
 4344 2738 6E000000 		.word	aciRxCrc.2763
 4345 273c 00000000 		.word	aciRxDataCnt
 4346 2740 70000000 		.word	aciRxLength.2762
 4347 2744 00000000 		.word	aciRxDataBuffer
 4348 2748 72000000 		.word	aciRxMessageType.2761
 4349              	.LFE14:
 4351              		.align	2
 4352              		.global	aciSingleSend
 4354              	aciSingleSend:
 4355              	.LFB4:
 4356              	.LM987:
 4357              		@ Function supports interworking.
 4358              		@ args = 0, pretend = 0, frame = 12
 4359              		@ frame_needed = 1, uses_anonymous_args = 0
 4360              	.LVL233:
 4361 274c 0DC0A0E1 		mov	ip, sp
 4362              	.LCFI26:
 4363 2750 F0DD2DE9 		stmfd	sp!, {r4, r5, r6, r7, r8, sl, fp, ip, lr, pc}
 4364              	.LCFI27:
 4365 2754 04B04CE2 		sub	fp, ip, #4
 4366              	.LCFI28:
 4367 2758 0CD04DE2 		sub	sp, sp, #12
 4368              	.LCFI29:
 4369              	.LM988:
 4370 275c 2C104BE5 		strb	r1, [fp, #-44]
 4371 2760 B0234BE1 		strh	r2, [fp, #-48]	@ movhi
 4372              	.LM989:
 4373 2764 2C505BE5 		ldrb	r5, [fp, #-44]	@ zero_extendqisi2
 4374 2768 B0C35BE1 		ldrh	ip, [fp, #-48]
 4375 276c 00005CE3 		cmp	ip, #0
 4376 2770 00005513 		cmpne	r5, #0
 4377 2774 00E0A013 		movne	lr, #0
 4378 2778 01E0A003 		moveq	lr, #1
 4379              	.LM990:
 4380 277c 0080A0E1 		mov	r8, r0
 4381 2780 FF1003E2 		and	r1, r3, #255
 4382              	.LVL234:
 4383 2784 0D70A0E1 		mov	r7, sp
 4384              	.LM991:
 4385 2788 0500000A 		beq	.L440
 4386              	.LVL235:
 4387              	.LM992:
 4388 278c 3C619FE5 		ldr	r6, .L461
 4389 2790 B030D6E1 		ldrh	r3, [r6, #0]
 4390 2794 2521A0E1 		mov	r2, r5, lsr #2
 4391 2798 023083E0 		add	r3, r3, r2
 4392 279c 230E53E3 		cmp	r3, #560
 4393 27a0 030000DA 		ble	.L458
 4394              	.LVL236:
 4395              	.L440:
 4396              	.LM993:
 4397 27a4 07D0A0E1 		mov	sp, r7
 4398              	.LM994:
 4399 27a8 24D04BE2 		sub	sp, fp, #36
 4400 27ac F06D9DE8 		ldmfd	sp, {r4, r5, r6, r7, r8, sl, fp, sp, lr}
 4401 27b0 1EFF2FE1 		bx	lr
 4402              	.LVL237:
 4403              	.L458:
 4404              	.LM995:
 4405 27b4 0B3082E2 		add	r3, r2, #11
 4406 27b8 7C3003E2 		and	r3, r3, #124
 4407 27bc 0DD063E0 		rsb	sp, r3, sp
 4408              	.LM996:
 4409 27c0 000051E3 		cmp	r1, #0
 4410              	.LM997:
 4411 27c4 2D31A0E1 		mov	r3, sp, lsr #2
 4412 27c8 0341A0E1 		mov	r4, r3, asl #2
 4413              	.LM998:
 4414 27cc B6E24BE1 		strh	lr, [fp, #-38]	@ movhi
 4415              	.LVL238:
 4416 27d0 FCA09F15 		ldrne	sl, .L461+4
 4417              	.LM999:
 4418 27d4 0E10A011 		movne	r1, lr
 4419              	.LVL239:
 4420 27d8 2600000A 		beq	.L459
 4421              	.LVL240:
 4422              	.L445:
 4423              	.LM1000:
 4424 27dc 8130A0E1 		mov	r3, r1, asl #1
 4425 27e0 BA2093E1 		ldrh	r2, [r3, sl]
 4426 27e4 000052E3 		cmp	r2, #0
 4427 27e8 01E0A001 		moveq	lr, r1
 4428 27ec 00E0E013 		mvnne	lr, #0
 4429              	.LM1001:
 4430 27f0 011081E2 		add	r1, r1, #1
 4431 27f4 450051E3 		cmp	r1, #69
 4432 27f8 040000CA 		bgt	.L460
 4433              	.L446:
 4434              	.LM1002:
 4435 27fc 01007EE3 		cmn	lr, #1
 4436 2800 F5FFFF0A 		beq	.L445
 4437              	.LM1003:
 4438 2804 011081E2 		add	r1, r1, #1
 4439 2808 450051E3 		cmp	r1, #69
 4440 280c FAFFFFDA 		ble	.L446
 4441              	.L460:
 4442              	.LM1004:
 4443 2810 01007EE3 		cmn	lr, #1
 4444 2814 E2FFFF0A 		beq	.L440
 4445              	.LM1005:
 4446 2818 B030D6E1 		ldrh	r3, [r6, #0]
 4447 281c B4009FE5 		ldr	r0, .L461+8
 4448 2820 000083E0 		add	r0, r3, r0
 4449              	.LM1006:
 4450 2824 B0309FE5 		ldr	r3, .L461+12
 4451              	.LM1007:
 4452 2828 8E40A0E1 		mov	r4, lr, asl #1
 4453              	.LM1008:
 4454 282c B3C084E1 		strh	ip, [r4, r3]	@ movhi
 4455              	.LM1009:
 4456 2830 A8C09FE5 		ldr	ip, .L461+16
 4457              	.LVL241:
 4458              	.LM1010:
 4459 2834 0130A0E3 		mov	r3, #1	@ movhi
 4460              	.LM1011:
 4461 2838 0810A0E1 		mov	r1, r8
 4462              	.LVL242:
 4463 283c 2521A0E1 		mov	r2, r5, lsr #2
 4464              	.LM1012:
 4465 2840 0E50CCE7 		strb	r5, [ip, lr]
 4466              	.LM1013:
 4467 2844 BA3084E1 		strh	r3, [r4, sl]	@ movhi
 4468              	.LM1014:
 4469 2848 FEFFFFEB 		bl	memcpy
 4470              	.LVL243:
 4471              	.LM1015:
 4472 284c 90C09FE5 		ldr	ip, .L461+20
 4473              	.LM1016:
 4474 2850 B000D6E1 		ldrh	r0, [r6, #0]
 4475              	.LM1017:
 4476 2854 B010DCE1 		ldrh	r1, [ip, #0]
 4477              	.LM1018:
 4478 2858 2C205BE5 		ldrb	r2, [fp, #-44]	@ zero_extendqisi2
 4479              	.LM1019:
 4480 285c 84309FE5 		ldr	r3, .L461+24
 4481              	.LM1020:
 4482 2860 222180E0 		add	r2, r0, r2, lsr #2
 4483              	.LM1021:
 4484 2864 011081E2 		add	r1, r1, #1
 4485              	.LM1022:
 4486 2868 B30084E1 		strh	r0, [r4, r3]	@ movhi
 4487              	.LM1023:
 4488 286c B020C6E1 		strh	r2, [r6, #0]	@ movhi
 4489              	.LM1024:
 4490 2870 B010CCE1 		strh	r1, [ip, #0]	@ movhi
 4491 2874 CAFFFFEA 		b	.L440
 4492              	.LVL244:
 4493              	.L459:
 4494              	.LM1025:
 4495 2878 26104BE2 		sub	r1, fp, #38
 4496              	.LVL245:
 4497 287c 0220A0E3 		mov	r2, #2
 4498 2880 0400A0E1 		mov	r0, r4
 4499 2884 FEFFFFEB 		bl	memcpy
 4500              	.LVL246:
 4501              	.LM1026:
 4502 2888 0220A0E3 		mov	r2, #2
 4503 288c 30104BE2 		sub	r1, fp, #48
 4504 2890 020084E0 		add	r0, r4, r2
 4505 2894 FEFFFFEB 		bl	memcpy
 4506              	.LM1027:
 4507 2898 2C305BE5 		ldrb	r3, [fp, #-44]	@ zero_extendqisi2
 4508 289c 0430C4E5 		strb	r3, [r4, #4]
 4509              	.LM1028:
 4510 28a0 2C205BE5 		ldrb	r2, [fp, #-44]	@ zero_extendqisi2
 4511 28a4 0810A0E1 		mov	r1, r8
 4512 28a8 2221A0E1 		mov	r2, r2, lsr #2
 4513 28ac 050084E2 		add	r0, r4, #5
 4514 28b0 FEFFFFEB 		bl	memcpy
 4515              	.LM1029:
 4516 28b4 2C205BE5 		ldrb	r2, [fp, #-44]	@ zero_extendqisi2
 4517 28b8 2221A0E1 		mov	r2, r2, lsr #2
 4518 28bc 0410A0E1 		mov	r1, r4
 4519 28c0 052082E2 		add	r2, r2, #5
 4520 28c4 A300A0E3 		mov	r0, #163
 4521 28c8 FEFFFFEB 		bl	aciTxSendPacket
 4522 28cc B4FFFFEA 		b	.L440
 4523              	.L462:
 4524              		.align	2
 4525              	.L461:
 4526 28d0 00000000 		.word	aciSendSingleNextBufferCount
 4527 28d4 00000000 		.word	aciSendSingleStatus
 4528 28d8 00000000 		.word	aciSendSingleBuffer
 4529 28dc 00000000 		.word	aciSendSingleId
 4530 28e0 00000000 		.word	aciSendSingleVarType
 4531 28e4 00000000 		.word	aciSendSingleCount
 4532 28e8 00000000 		.word	aciSendSingleBufferCnt
 4533              	.LFE4:
 4535              		.align	2
 4536              		.global	aciSendSingleWithAck
 4538              	aciSendSingleWithAck:
 4539              	.LFB3:
 4540              	.LM1030:
 4541              		@ Function supports interworking.
 4542              		@ args = 0, pretend = 0, frame = 4
 4543              		@ frame_needed = 1, uses_anonymous_args = 0
 4544              	.LVL247:
 4545 28ec 0DC0A0E1 		mov	ip, sp
 4546              	.LCFI30:
 4547 28f0 F0D92DE9 		stmfd	sp!, {r4, r5, r6, r7, r8, fp, ip, lr, pc}
 4548              	.LCFI31:
 4549 28f4 04B04CE2 		sub	fp, ip, #4
 4550              	.LCFI32:
 4551 28f8 00C8A0E1 		mov	ip, r0, asl #16
 4552 28fc 2CC8A0E1 		mov	ip, ip, lsr #16
 4553 2900 04D04DE2 		sub	sp, sp, #4
 4554              	.LCFI33:
 4555              	.LM1031:
 4556 2904 0C58A0E1 		mov	r5, ip, asl #16
 4557 2908 B8209FE5 		ldr	r2, .L465
 4558              	.LM1032:
 4559              	.LM1033:
 4560 290c 4558A0E1 		mov	r5, r5, asr #16
 4561 2910 0570D2E7 		ldrb	r7, [r2, r5]	@ zero_extendqisi2
 4562              	.LM1034:
 4563 2914 2731A0E1 		mov	r3, r7, lsr #2
 4564 2918 0B3083E2 		add	r3, r3, #11
 4565 291c 7C3003E2 		and	r3, r3, #124
 4566              	.LM1035:
 4567 2920 0D80A0E1 		mov	r8, sp
 4568              	.LM1036:
 4569 2924 0DD063E0 		rsb	sp, r3, sp
 4570 2928 2D41A0E1 		mov	r4, sp, lsr #2
 4571 292c 0441A0E1 		mov	r4, r4, asl #2
 4572              	.LM1037:
 4573 2930 0260A0E3 		mov	r6, #2
 4574              	.LM1038:
 4575 2934 01C08CE2 		add	ip, ip, #1
 4576              	.LM1039:
 4577 2938 24104BE2 		sub	r1, fp, #36
 4578 293c 0620A0E1 		mov	r2, r6
 4579 2940 0400A0E1 		mov	r0, r4
 4580              	.LVL248:
 4581              	.LM1040:
 4582 2944 B4C24BE1 		strh	ip, [fp, #-36]	@ movhi
 4583              	.LVL249:
 4584              	.LM1041:
 4585 2948 21704BE5 		strb	r7, [fp, #-33]
 4586              	.LVL250:
 4587              	.LM1042:
 4588 294c FEFFFFEB 		bl	memcpy
 4589              	.LM1043:
 4590 2950 74109FE5 		ldr	r1, .L465+4
 4591 2954 8550A0E1 		mov	r5, r5, asl #1
 4592 2958 011085E0 		add	r1, r5, r1
 4593 295c 0620A0E1 		mov	r2, r6
 4594 2960 060084E0 		add	r0, r4, r6
 4595 2964 FEFFFFEB 		bl	memcpy
 4596              	.LM1044:
 4597 2968 21305BE5 		ldrb	r3, [fp, #-33]	@ zero_extendqisi2
 4598              	.LM1045:
 4599 296c 5C209FE5 		ldr	r2, .L465+8
 4600              	.LM1046:
 4601 2970 0430C4E5 		strb	r3, [r4, #4]
 4602              	.LM1047:
 4603 2974 58109FE5 		ldr	r1, .L465+12
 4604 2978 B23095E1 		ldrh	r3, [r5, r2]
 4605 297c 21205BE5 		ldrb	r2, [fp, #-33]	@ zero_extendqisi2
 4606 2980 011083E0 		add	r1, r3, r1
 4607 2984 3226A0E1 		mov	r2, r2, lsr r6
 4608 2988 050084E2 		add	r0, r4, #5
 4609 298c FEFFFFEB 		bl	memcpy
 4610              	.LM1048:
 4611 2990 21205BE5 		ldrb	r2, [fp, #-33]	@ zero_extendqisi2
 4612 2994 3226A0E1 		mov	r2, r2, lsr r6
 4613              	.LM1049:
 4614 2998 38C09FE5 		ldr	ip, .L465+16
 4615 299c BC3095E1 		ldrh	r3, [r5, ip]
 4616 29a0 013083E2 		add	r3, r3, #1
 4617              	.LM1050:
 4618 29a4 0410A0E1 		mov	r1, r4
 4619 29a8 052082E2 		add	r2, r2, #5
 4620 29ac A300A0E3 		mov	r0, #163
 4621              	.LM1051:
 4622 29b0 BC3085E1 		strh	r3, [r5, ip]	@ movhi
 4623              	.LM1052:
 4624 29b4 FEFFFFEB 		bl	aciTxSendPacket
 4625 29b8 08D0A0E1 		mov	sp, r8
 4626              	.LM1053:
 4627 29bc 20D04BE2 		sub	sp, fp, #32
 4628 29c0 F0699DE8 		ldmfd	sp, {r4, r5, r6, r7, r8, fp, sp, lr}
 4629 29c4 1EFF2FE1 		bx	lr
 4630              	.L466:
 4631              		.align	2
 4632              	.L465:
 4633 29c8 00000000 		.word	aciSendSingleVarType
 4634 29cc 00000000 		.word	aciSendSingleId
 4635 29d0 00000000 		.word	aciSendSingleBufferCnt
 4636 29d4 00000000 		.word	aciSendSingleBuffer
 4637 29d8 00000000 		.word	aciSendSingleStatus
 4638              	.LFE3:
 4640              		.align	2
 4641              		.global	aciEngine
 4643              	aciEngine:
 4644              	.LFB12:
 4645              	.LM1054:
 4646              		@ Function supports interworking.
 4647              		@ args = 0, pretend = 0, frame = 4
 4648              		@ frame_needed = 0, uses_anonymous_args = 0
 4649              	.LM1055:
 4650 29dc 50019FE5 		ldr	r0, .L493
 4651 29e0 B030D0E1 		ldrh	r3, [r0, #0]
 4652              	.LM1056:
 4653 29e4 70402DE9 		stmfd	sp!, {r4, r5, r6, lr}
 4654              	.LCFI34:
 4655              	.LM1057:
 4656 29e8 48219FE5 		ldr	r2, .L493+4
 4657              	.LM1058:
 4658 29ec 013083E2 		add	r3, r3, #1
 4659 29f0 0338A0E1 		mov	r3, r3, asl #16
 4660              	.LM1059:
 4661 29f4 B010D2E1 		ldrh	r1, [r2, #0]
 4662              	.LM1060:
 4663 29f8 2338A0E1 		mov	r3, r3, lsr #16
 4664              	.LM1061:
 4665 29fc 030051E1 		cmp	r1, r3
 4666              	.LM1062:
 4667 2a00 04D04DE2 		sub	sp, sp, #4
 4668              	.LCFI35:
 4669              	.LM1063:
 4670 2a04 B030C0E1 		strh	r3, [r0, #0]	@ movhi
 4671              	.LM1064:
 4672 2a08 4300008A 		bhi	.L468
 4673              	.LM1065:
 4674 2a0c 28319FE5 		ldr	r3, .L493+8
 4675 2a10 0120A0E3 		mov	r2, #1
 4676 2a14 0020C3E5 		strb	r2, [r3, #0]
 4677              	.LM1066:
 4678 2a18 0030A0E3 		mov	r3, #0	@ movhi
 4679 2a1c B030C0E1 		strh	r3, [r0, #0]	@ movhi
 4680              	.L470:
 4681              	.LM1067:
 4682 2a20 18619FE5 		ldr	r6, .L493+12
 4683 2a24 18219FE5 		ldr	r2, .L493+16
 4684 2a28 003096E5 		ldr	r3, [r6, #0]
 4685 2a2c 0C0082E2 		add	r0, r2, #12
 4686 2a30 031183E0 		add	r1, r3, r3, asl #2
 4687              	.L472:
 4688              	.LM1068:
 4689 2a34 003092E5 		ldr	r3, [r2, #0]
 4690 2a38 013083E2 		add	r3, r3, #1
 4691              	.LM1069:
 4692 2a3c 010053E1 		cmp	r3, r1
 4693 2a40 0030A083 		movhi	r3, #0
 4694 2a44 043082E4 		str	r3, [r2], #4
 4695              	.LM1070:
 4696 2a48 000052E1 		cmp	r2, r0
 4697 2a4c F8FFFF1A 		bne	.L472
 4698              	.LM1071:
 4699 2a50 F0409FE5 		ldr	r4, .L493+20
 4700 2a54 0030D4E5 		ldrb	r3, [r4, #0]	@ zero_extendqisi2
 4701 2a58 000053E3 		cmp	r3, #0
 4702 2a5c 0C00000A 		beq	.L476
 4703 2a60 E4309FE5 		ldr	r3, .L493+24
 4704 2a64 003093E5 		ldr	r3, [r3, #0]
 4705 2a68 000053E3 		cmp	r3, #0
 4706 2a6c 0800000A 		beq	.L476
 4707              	.LBB64:
 4708              	.LM1072:
 4709 2a70 0FE0A0E1 		mov	lr, pc
 4710 2a74 13FF2FE1 		bx	r3
 4711 2a78 04108DE2 		add	r1, sp, #4
 4712              	.LM1073:
 4713 2a7c 0030A0E3 		mov	r3, #0
 4714              	.LM1074:
 4715 2a80 B20061E1 		strh	r0, [r1, #-2]!	@ movhi
 4716              	.LVL251:
 4717              	.LM1075:
 4718 2a84 0220A0E3 		mov	r2, #2
 4719 2a88 F200A0E3 		mov	r0, #242
 4720              	.LM1076:
 4721 2a8c 0030C4E5 		strb	r3, [r4, #0]
 4722              	.LM1077:
 4723 2a90 FEFFFFEB 		bl	aciTxSendPacket
 4724              	.L476:
 4725              	.LBE64:
 4726              	.LM1078:
 4727 2a94 B4309FE5 		ldr	r3, .L493+28
 4728 2a98 B020D3E1 		ldrh	r2, [r3, #0]
 4729 2a9c 000052E3 		cmp	r2, #0
 4730              	.LM1079:
 4731 2aa0 AC309F05 		ldreq	r3, .L493+32
 4732 2aa4 B020C301 		streqh	r2, [r3, #0]	@ movhi
 4733              	.LM1080:
 4734 2aa8 1800000A 		beq	.L489
 4735 2aac A4509FE5 		ldr	r5, .L493+36
 4736 2ab0 0040A0E3 		mov	r4, #0
 4737              	.LVL252:
 4738 2ab4 0A0000EA 		b	.L481
 4739              	.LVL253:
 4740              	.L484:
 4741              	.LM1081:
 4742 2ab8 003096E5 		ldr	r3, [r6, #0]
 4743 2abc 023083E2 		add	r3, r3, #2
 4744 2ac0 030052E1 		cmp	r2, r3
 4745              	.LM1082:
 4746 2ac4 013082E2 		add	r3, r2, #1
 4747              	.LM1083:
 4748 2ac8 0130A003 		moveq	r3, #1	@ movhi
 4749 2acc B030C501 		streqh	r3, [r5, #0]	@ movhi
 4750              	.LM1084:
 4751 2ad0 B030C511 		strneh	r3, [r5, #0]	@ movhi
 4752              	.LVL254:
 4753              	.L482:
 4754              	.LM1085:
 4755 2ad4 014084E2 		add	r4, r4, #1
 4756 2ad8 460054E3 		cmp	r4, #70
 4757 2adc 025085E2 		add	r5, r5, #2
 4758 2ae0 0A00000A 		beq	.L489
 4759              	.L481:
 4760              	.LM1086:
 4761 2ae4 B020D5E1 		ldrh	r2, [r5, #0]
 4762 2ae8 000052E3 		cmp	r2, #0
 4763 2aec F8FFFF0A 		beq	.L482
 4764              	.LM1087:
 4765 2af0 010052E3 		cmp	r2, #1
 4766              	.LM1088:
 4767 2af4 0400A0E1 		mov	r0, r4
 4768              	.LM1089:
 4769 2af8 EEFFFF1A 		bne	.L484
 4770              	.LVL255:
 4771              	.LM1090:
 4772 2afc 014084E2 		add	r4, r4, #1
 4773              	.LM1091:
 4774 2b00 FEFFFFEB 		bl	aciSendSingleWithAck
 4775              	.LVL256:
 4776              	.LM1092:
 4777 2b04 460054E3 		cmp	r4, #70
 4778 2b08 025085E2 		add	r5, r5, #2
 4779 2b0c F4FFFF1A 		bne	.L481
 4780              	.LVL257:
 4781              	.L489:
 4782              	.LM1093:
 4783 2b10 04D08DE2 		add	sp, sp, #4
 4784 2b14 7040BDE8 		ldmfd	sp!, {r4, r5, r6, lr}
 4785 2b18 1EFF2FE1 		bx	lr
 4786              	.LVL258:
 4787              	.L468:
 4788              	.LM1094:
 4789 2b1c 18309FE5 		ldr	r3, .L493+8
 4790 2b20 0020D3E5 		ldrb	r2, [r3, #0]	@ zero_extendqisi2
 4791 2b24 000052E3 		cmp	r2, #0
 4792 2b28 BCFFFF1A 		bne	.L470
 4793              	.LM1095:
 4794 2b2c FEFFFFEB 		bl	aciSendVar
 4795 2b30 BAFFFFEA 		b	.L470
 4796              	.L494:
 4797              		.align	2
 4798              	.L493:
 4799 2b34 00000000 		.word	aciHeartBeatCnt
 4800 2b38 00000000 		.word	aciHeartBeatTimeout
 4801 2b3c 00000000 		.word	aciInhibitPacketTransmission
 4802 2b40 00000000 		.word	aciEngineRate
 4803 2b44 00000000 		.word	aciEngineRateCounter
 4804 2b48 00000000 		.word	aciParamSaveIt
 4805 2b4c 00000000 		.word	aciWriteParatoFlashCallback
 4806 2b50 00000000 		.word	aciSendSingleCount
 4807 2b54 00000000 		.word	aciSendSingleNextBufferCount
 4808 2b58 00000000 		.word	aciSendSingleStatus
 4809              	.LFE12:
 4811              		.global	aciListVarCount
 4812              		.bss
 4813              		.align	2
 4816              	aciListVarCount:
 4817 0000 00000000 		.space	4
 4818              		.global	aciListCmdCount
 4819              		.align	2
 4822              	aciListCmdCount:
 4823 0004 00000000 		.space	4
 4824              		.global	aciListParCount
 4825              		.align	2
 4828              	aciListParCount:
 4829 0008 00000000 		.space	4
 4830              		.global	aciVarPacketMagicCode
 4833              	aciVarPacketMagicCode:
 4834 000c 000000   		.space	3
 4835              		.global	aciVarPacketTransmissionRate
 4836              		.data
 4837              		.align	1
 4840              	aciVarPacketTransmissionRate:
 4841 0000 0A00     		.short	10
 4842 0002 0A00     		.short	10
 4843 0004 0A00     		.short	10
 4844              		.global	aciVarPacketCurrentSize
 4845              		.bss
 4846 000f 00       		.align	1
 4849              	aciVarPacketCurrentSize:
 4850 0010 00000000 		.space	6
 4850      0000
 4851              		.global	aciVarPacketNumberOfVars
 4852              		.align	1
 4855              	aciVarPacketNumberOfVars:
 4856 0016 00000000 		.space	6
 4856      0000
 4857              		.global	aciVarPacketUpdated
 4858              		.align	1
 4861              	aciVarPacketUpdated:
 4862 001c 00000000 		.space	6
 4862      0000
 4863              		.global	aciCmdPacketMagicCode
 4866              	aciCmdPacketMagicCode:
 4867 0022 000000   		.space	3
 4868              		.global	aciCmdPacketWithACK
 4871              	aciCmdPacketWithACK:
 4872 0025 000000   		.space	3
 4873              		.global	aciCmdPacketSendAck
 4876              	aciCmdPacketSendAck:
 4877 0028 000000   		.space	3
 4878              		.global	aciCmdPacketReceived
 4881              	aciCmdPacketReceived:
 4882 002b 000000   		.space	3
 4883              		.global	aciParPacketMagicCode
 4886              	aciParPacketMagicCode:
 4887 002e 000000   		.space	3
 4888              		.global	aciParPacketSendAck
 4891              	aciParPacketSendAck:
 4892 0031 000000   		.space	3
 4893              		.global	aciParamPacketReceived
 4896              	aciParamPacketReceived:
 4897 0034 000000   		.space	3
 4898              		.global	aciParPacketRequest
 4901              	aciParPacketRequest:
 4902 0037 000000   		.space	3
 4903              		.global	aciParamSaveIt
 4906              	aciParamSaveIt:
 4907 003a 00       		.space	1
 4908              		.global	entry_exist
 4909              		.data
 4912              	entry_exist:
 4913 0006 01       		.byte	1
 4914              		.global	aciEngineRate
 4915 0007 00       		.align	2
 4918              	aciEngineRate:
 4919 0008 E8030000 		.word	1000
 4920              		.global	aciEngineRateCounter
 4921              		.bss
 4922 003b 00       		.align	2
 4925              	aciEngineRateCounter:
 4926 003c 00000000 		.space	12
 4926      00000000 
 4926      00000000 
 4927              		.global	aciTxRingBufferWritePtr
 4928              		.align	1
 4931              	aciTxRingBufferWritePtr:
 4932 0048 0000     		.space	2
 4933              		.global	aciTxRingBufferReadPtr
 4936              	aciTxRingBufferReadPtr:
 4937 004a 00       		.space	1
 4938              		.global	aciHeartBeatCnt
 4939 004b 00       		.align	1
 4942              	aciHeartBeatCnt:
 4943 004c 0000     		.space	2
 4944              		.global	aciHeartBeatTimeout
 4945              		.data
 4946              		.align	1
 4949              	aciHeartBeatTimeout:
 4950 000c D007     		.short	2000
 4951              		.global	aciInhibitPacketTransmission
 4952              		.bss
 4955              	aciInhibitPacketTransmission:
 4956 004e 00       		.space	1
 4957              		.global	aciReadWriteStartCallback
 4958 004f 00       		.align	2
 4961              	aciReadWriteStartCallback:
 4962 0050 00000000 		.space	4
 4963              		.global	aciReadWriteEndCallback
 4964              		.align	2
 4967              	aciReadWriteEndCallback:
 4968 0054 00000000 		.space	4
 4969              		.global	aciAddDatatoFlashCallback
 4970              		.align	2
 4973              	aciAddDatatoFlashCallback:
 4974 0058 00000000 		.space	4
 4975              		.global	aciReadParafromFlashCallback
 4976              		.align	2
 4979              	aciReadParafromFlashCallback:
 4980 005c 00000000 		.space	4
 4981              		.global	aciSaveParaCallback
 4982              		.align	2
 4985              	aciSaveParaCallback:
 4986 0060 00000000 		.space	4
 4987              		.global	aciWriteParatoFlashCallback
 4988              		.align	2
 4991              	aciWriteParatoFlashCallback:
 4992 0064 00000000 		.space	4
 4993              		.global	aciSendSingleCount
 4994              		.align	1
 4997              	aciSendSingleCount:
 4998 0068 0000     		.space	2
 4999              		.global	aciSendSingleNextBufferCount
 5000              		.align	1
 5003              	aciSendSingleNextBufferCount:
 5004 006a 0000     		.space	2
 5005              		.global	aciMagicCodeVar
 5006              		.data
 5007              		.align	1
 5010              	aciMagicCodeVar:
 5011 000e FF00     		.short	255
 5012              		.global	aciMagicCodeCmd
 5013              		.align	1
 5016              	aciMagicCodeCmd:
 5017 0010 FF00     		.short	255
 5018              		.global	aciMagicCodePar
 5019              		.align	1
 5022              	aciMagicCodePar:
 5023 0012 FF00     		.short	255
 5024              		.section	.rodata
 5027              	C.81.2813:
 5028 0000 21       		.byte	33
 5029 0001 23       		.byte	35
 5030 0002 21       		.byte	33
 5031              		.bss
 5032              		.align	1
 5033              	aciRxReceivedCrc.2764:
 5034 006c 0000     		.space	2
 5035              		.align	1
 5036              	aciRxCrc.2763:
 5037 006e 0000     		.space	2
 5038              		.align	1
 5039              	aciRxLength.2762:
 5040 0070 0000     		.space	2
 5041              	aciRxMessageType.2761:
 5042 0072 00       		.space	1
 5043              	aciRxState.2760:
 5044 0073 00       		.space	1
 5045              		.section	.rodata
 5048              	C.30.2276:
 5049 0003 21       		.byte	33
 5050 0004 23       		.byte	35
 5051 0005 21       		.byte	33
 5052              		.comm	aciListPar,950,1
 5053              		.comm	aciListVar,1330,1
 5054              		.comm	aciListCmd,950,1
 5055              		.comm	aciVarPacketSelect,384,2
 5056              		.comm	aciVarPacketSelectLength,3,1
 5057              		.comm	aciVarPacketPtrList,768,4
 5058              		.comm	aciVarPacketTypeList,192,1
 5059              		.comm	aciVarPacketContentBufferLength,6,2
 5060              		.comm	aciVarPacketContentBuffer,1680,1
 5061              		.comm	aciCmdPacketSelect,384,2
 5062              		.comm	aciCmdPacketSelectLength,3,1
 5063              		.comm	aciCmdPacketContentBufferLength,6,2
 5064              		.comm	aciCmdPacketContentBuffer,1200,1
 5065              		.comm	aciCmdPacketContentBufferValid,3,1
 5066              		.comm	aciCmdPacketContentBufferInvalidCnt,3,1
 5067              		.comm	aciParPacketSelect,384,2
 5068              		.comm	aciParPacketSelectLength,3,1
 5069              		.comm	aciParPacketContentBufferLength,6,2
 5070              		.comm	aciParPacketContentBuffer,1200,1
 5071              		.comm	aciParPacketContentBufferValid,3,1
 5072              		.comm	aciParPacketContentBufferInvalidCnt,3,1
 5073              		.comm	aciTxRingBuffer,160,1
 5074              		.comm	aciStartTxCallback,4,4
 5075              		.comm	aciReadDatafromFlashCallback,4,4
 5076              		.comm	aciSendSingleStatus,140,2
 5077              		.comm	aciSendSingleId,140,2
 5078              		.comm	aciSendSingleVarType,70,1
 5079              		.comm	aciSendSingleBuffer,560,1
 5080              		.comm	aciSendSingleBufferCnt,140,2
 5081              		.comm	aciRxDataBuffer,384,1
 5082              		.comm	aciRxDataCnt,2,2
 5676              	.Letext0: