   1              		.file	"buildInfoSetup.c"
   9              	.Ltext0:
  10              		.section	.rodata
  11              		.align	2
  12              	.LC0:
  13 0000 4A756C20 		.ascii	"Jul 22 2015\000"
  13      32322032 
  13      30313500 
  14              		.text
  15              		.align	2
  16              		.global	generateBuildInfo
  18              	generateBuildInfo:
  19              	.LFB2:
  20              	.LM1:
  21              		@ Function supports interworking.
  22              		@ args = 0, pretend = 0, frame = 48
  23              		@ frame_needed = 0, uses_anonymous_args = 0
  24 0000 F04F2DE9 		stmfd	sp!, {r4, r5, r6, r7, r8, r9, sl, fp, lr}
  25              	.LCFI0:
  26 0004 30D04DE2 		sub	sp, sp, #48
  27              	.LCFI1:
  28              	.LM2:
  29 0008 01408DE2 		add	r4, sp, #1
  30 000c 9C119FE5 		ldr	r1, .L25
  31 0010 2420A0E3 		mov	r2, #36
  32 0014 0400A0E1 		mov	r0, r4
  33              	.LM3:
  34 0018 25608DE2 		add	r6, sp, #37
  35              	.LM4:
  36 001c FEFFFFEB 		bl	memcpy
  37              	.LM5:
  38 0020 0600A0E1 		mov	r0, r6
  39 0024 88119FE5 		ldr	r1, .L25+4
  40 0028 0B20A0E3 		mov	r2, #11
  41 002c FEFFFFEB 		bl	memcpy
  42 0030 80519FE5 		ldr	r5, .L25+8
  43 0034 0000A0E3 		mov	r0, #0
  44              	.LVL0:
  45 0038 2570DDE5 		ldrb	r7, [sp, #37]	@ zero_extendqisi2
  46 003c 26E0DDE5 		ldrb	lr, [sp, #38]	@ zero_extendqisi2
  47 0040 27C0DDE5 		ldrb	ip, [sp, #39]	@ zero_extendqisi2
  48 0044 00A0A0E1 		mov	sl, r0
  49 0048 0090A0E1 		mov	r9, r0
  50 004c 00B0A0E1 		mov	fp, r0
  51 0050 0080A0E1 		mov	r8, r0
  52 0054 050000EA 		b	.L2
  53              	.LVL1:
  54              	.L4:
  55              	.LBB2:
  56              	.LM6:
  57 0058 030051E3 		cmp	r1, #3
  58              	.LBE2:
  59              	.LM7:
  60 005c 034084E2 		add	r4, r4, #3
  61              	.LBB3:
  62              	.LM8:
  63 0060 1000000A 		beq	.L23
  64              	.L5:
  65              	.LBE3:
  66              	.LM9:
  67 0064 010080E2 		add	r0, r0, #1
  68 0068 0B0050E3 		cmp	r0, #11
  69 006c 0F00000A 		beq	.L24
  70              	.LVL2:
  71              	.L2:
  72              	.LM10:
  73 0070 0030D4E5 		ldrb	r3, [r4, #0]	@ zero_extendqisi2
  74              	.LBB4:
  75              	.LM11:
  76 0074 0120D4E5 		ldrb	r2, [r4, #1]	@ zero_extendqisi2
  77              	.LBE4:
  78              	.LM12:
  79 0078 070053E1 		cmp	r3, r7
  80 007c 0010A013 		movne	r1, #0
  81 0080 0110A003 		moveq	r1, #1
  82              	.LBB5:
  83              	.LM13:
  84 0084 0230D4E5 		ldrb	r3, [r4, #2]	@ zero_extendqisi2
  85 0088 0E0052E1 		cmp	r2, lr
  86              	.LM14:
  87 008c 01108102 		addeq	r1, r1, #1
  88              	.LM15:
  89 0090 0C0053E1 		cmp	r3, ip
  90 0094 EFFFFF1A 		bne	.L4
  91              	.LVL3:
  92              	.LM16:
  93 0098 011081E2 		add	r1, r1, #1
  94              	.LM17:
  95 009c 030051E3 		cmp	r1, #3
  96              	.LBE5:
  97              	.LM18:
  98 00a0 034084E2 		add	r4, r4, #3
  99              	.LBB6:
 100              	.LM19:
 101 00a4 EEFFFF1A 		bne	.L5
 102              	.L23:
 103              	.LM20:
 104 00a8 014080E2 		add	r4, r0, #1
 105              	.LVL4:
 106 00ac 000000EA 		b	.L7
 107              	.LVL5:
 108              	.L24:
 109              	.LBE6:
 110              	.LM21:
 111 00b0 0140A0E3 		mov	r4, #1
 112              	.LVL6:
 113              	.L7:
 114 00b4 0020A0E3 		mov	r2, #0
 115              	.LVL7:
 116 00b8 3010A0E3 		mov	r1, #48
 117              	.LVL8:
 118              	.L9:
 119              	.LM22:
 120 00bc 0630D2E7 		ldrb	r3, [r2, r6]	@ zero_extendqisi2
 121 00c0 2F0053E3 		cmp	r3, #47
 122              	.LM23:
 123 00c4 0610C297 		strlsb	r1, [r2, r6]
 124              	.LM24:
 125 00c8 012082E2 		add	r2, r2, #1
 126 00cc 0B0052E3 		cmp	r2, #11
 127 00d0 F9FFFF1A 		bne	.L9
 128              	.LM25:
 129 00d4 2D30DDE5 		ldrb	r3, [sp, #45]	@ zero_extendqisi2
 130 00d8 2C10DDE5 		ldrb	r1, [sp, #44]	@ zero_extendqisi2
 131 00dc 033183E0 		add	r3, r3, r3, asl #2
 132 00e0 29C0DDE5 		ldrb	ip, [sp, #41]	@ zero_extendqisi2
 133 00e4 812261E0 		rsb	r2, r1, r1, asl #5
 134              	.LVL9:
 135 00e8 033183E0 		add	r3, r3, r3, asl #2
 136 00ec 2A00DDE5 		ldrb	r0, [sp, #42]	@ zero_extendqisi2
 137              	.LVL10:
 138 00f0 021181E0 		add	r1, r1, r2, asl #2
 139 00f4 0CC18CE0 		add	ip, ip, ip, asl #2
 140 00f8 2FE0DDE5 		ldrb	lr, [sp, #47]	@ zero_extendqisi2
 141 00fc 0331A0E1 		mov	r3, r3, asl #2
 142 0100 2E20DDE5 		ldrb	r2, [sp, #46]	@ zero_extendqisi2
 143 0104 813183E0 		add	r3, r3, r1, asl #3
 144 0108 8C0080E0 		add	r0, r0, ip, asl #1
 145 010c 0E3083E0 		add	r3, r3, lr
 146 0110 210E40E2 		sub	r0, r0, #528
 147 0114 022182E0 		add	r2, r2, r2, asl #2
 148 0118 823083E0 		add	r3, r3, r2, asl #1
 149 011c 801260E0 		rsb	r1, r0, r0, asl #5
 150 0120 011361E0 		rsb	r1, r1, r1, asl #6
 151 0124 0D3A43E2 		sub	r3, r3, #53248
 152 0128 842264E0 		rsb	r2, r4, r4, asl #5
 153 012c 810180E0 		add	r0, r0, r1, asl #3
 154 0130 022184E0 		add	r2, r4, r2, asl #2
 155 0134 503043E2 		sub	r3, r3, #80
 156 0138 003383E0 		add	r3, r3, r0, asl #6
 157 013c 022182E0 		add	r2, r2, r2, asl #2
 158 0140 023283E0 		add	r3, r3, r2, asl #4
 159              	.LM26:
 160 0144 0010A0E3 		mov	r1, #0
 161              	.LM27:
 162 0148 23E4A0E1 		mov	lr, r3, lsr #8
 163 014c 23C8A0E1 		mov	ip, r3, lsr #16
 164 0150 230CA0E1 		mov	r0, r3, lsr #24
 165 0154 0320A0E3 		mov	r2, #3
 166 0158 0430C5E5 		strb	r3, [r5, #4]
 167 015c 0020C5E5 		strb	r2, [r5, #0]
 168 0160 1110C5E5 		strb	r1, [r5, #17]
 169 0164 1080C5E5 		strb	r8, [r5, #16]
 170 0168 12B0C5E5 		strb	fp, [r5, #18]
 171 016c 0B90C5E5 		strb	r9, [r5, #11]
 172 0170 0AA0C5E5 		strb	sl, [r5, #10]
 173 0174 0910C5E5 		strb	r1, [r5, #9]
 174 0178 0810C5E5 		strb	r1, [r5, #8]
 175 017c 0F10C5E5 		strb	r1, [r5, #15]
 176 0180 0E10C5E5 		strb	r1, [r5, #14]
 177 0184 0D10C5E5 		strb	r1, [r5, #13]
 178 0188 0C10C5E5 		strb	r1, [r5, #12]
 179 018c 0700C5E5 		strb	r0, [r5, #7]
 180 0190 06C0C5E5 		strb	ip, [r5, #6]
 181 0194 05E0C5E5 		strb	lr, [r5, #5]
 182 0198 0310C5E5 		strb	r1, [r5, #3]
 183 019c 0210C5E5 		strb	r1, [r5, #2]
 184 01a0 0110C5E5 		strb	r1, [r5, #1]
 185              	.LM28:
 186 01a4 30D08DE2 		add	sp, sp, #48
 187 01a8 F04FBDE8 		ldmfd	sp!, {r4, r5, r6, r7, r8, r9, sl, fp, lr}
 188 01ac 1EFF2FE1 		bx	lr
 189              	.L26:
 190              		.align	2
 191              	.L25:
 192 01b0 0C000000 		.word	C.0.1386
 193 01b4 00000000 		.word	.LC0
 194 01b8 00000000 		.word	buildInfo
 195              	.LFE2:
 197              		.section	.rodata
 200              	C.0.1386:
 201 000c 4A616E   		.ascii	"Jan"
 202 000f 466562   		.ascii	"Feb"
 203 0012 4D6172   		.ascii	"Mar"
 204 0015 417072   		.ascii	"Apr"
 205 0018 4D6179   		.ascii	"May"
 206 001b 4A756E   		.ascii	"Jun"
 207 001e 4A756C   		.ascii	"Jul"
 208 0021 417567   		.ascii	"Aug"
 209 0024 536570   		.ascii	"Sep"
 210 0027 4F6374   		.ascii	"Oct"
 211 002a 4E6F76   		.ascii	"Nov"
 212 002d 44657A   		.ascii	"Dez"
 213              		.comm	GPS_timeout,4,4
 214              		.comm	SYSTEM_initialized,1,1
 215              		.comm	buildInfo,83,1
 266              	.Letext0:
DEFINED SYMBOLS
                            *ABS*:00000000 buildInfoSetup.c
     /tmp/ccSdaHje.s:11     .rodata:00000000 $d
     /tmp/ccSdaHje.s:15     .text:00000000 $a
     /tmp/ccSdaHje.s:18     .text:00000000 generateBuildInfo
     /tmp/ccSdaHje.s:192    .text:000001b0 $d
     /tmp/ccSdaHje.s:200    .rodata:0000000c C.0.1386
                            *COM*:00000053 buildInfo
                            *COM*:00000004 GPS_timeout
                            *COM*:00000001 SYSTEM_initialized
     /tmp/ccSdaHje.s:229    .debug_frame:00000010 $d

UNDEFINED SYMBOLS
memcpy
