   1              		.file	"Gen_motor_cmmd.c"
   9              	.Ltext0:
  10              		.align	2
  11              		.global	CalMotorSpeedFromDev
  13              	CalMotorSpeedFromDev:
  14              	.LFB4:
  15              	.LM1:
  16              		@ Function supports interworking.
  17              		@ args = 0, pretend = 0, frame = 0
  18              		@ frame_needed = 0, uses_anonymous_args = 0
  19              	.LVL0:
  20 0000 04E02DE5 		str	lr, [sp, #-4]!
  21              	.LCFI0:
  22              	.LM2:
  23 0004 003090E5 		ldr	r3, [r0, #0]
  24 0008 0210D3E5 		ldrb	r1, [r3, #2]	@ zero_extendqisi2
  25 000c 0020D3E5 		ldrb	r2, [r3, #0]	@ zero_extendqisi2
  26 0010 03C0D3E5 		ldrb	ip, [r3, #3]	@ zero_extendqisi2
  27 0014 64E09FE5 		ldr	lr, .L3
  28 0018 012082E0 		add	r2, r2, r1
  29 001c 02206CE0 		rsb	r2, ip, r2
  30 0020 0C20CEE5 		strb	r2, [lr, #12]
  31              	.LM3:
  32 0024 003090E5 		ldr	r3, [r0, #0]
  33 0028 0210D3E5 		ldrb	r1, [r3, #2]	@ zero_extendqisi2
  34 002c 0020D3E5 		ldrb	r2, [r3, #0]	@ zero_extendqisi2
  35 0030 03C0D3E5 		ldrb	ip, [r3, #3]	@ zero_extendqisi2
  36 0034 022061E0 		rsb	r2, r1, r2
  37 0038 02206CE0 		rsb	r2, ip, r2
  38 003c 0D20CEE5 		strb	r2, [lr, #13]
  39              	.LM4:
  40 0040 003090E5 		ldr	r3, [r0, #0]
  41 0044 0110D3E5 		ldrb	r1, [r3, #1]	@ zero_extendqisi2
  42 0048 0020D3E5 		ldrb	r2, [r3, #0]	@ zero_extendqisi2
  43 004c 03C0D3E5 		ldrb	ip, [r3, #3]	@ zero_extendqisi2
  44 0050 012082E0 		add	r2, r2, r1
  45 0054 0C2082E0 		add	r2, r2, ip
  46 0058 0E20CEE5 		strb	r2, [lr, #14]
  47              	.LM5:
  48 005c 003090E5 		ldr	r3, [r0, #0]
  49 0060 0020D3E5 		ldrb	r2, [r3, #0]	@ zero_extendqisi2
  50 0064 0110D3E5 		ldrb	r1, [r3, #1]	@ zero_extendqisi2
  51 0068 0300D3E5 		ldrb	r0, [r3, #3]	@ zero_extendqisi2
  52              	.LVL1:
  53 006c 022061E0 		rsb	r2, r1, r2
  54 0070 002082E0 		add	r2, r2, r0
  55 0074 0F20CEE5 		strb	r2, [lr, #15]
  56              	.LM6:
  57 0078 04E09DE4 		ldr	lr, [sp], #4
  58 007c 1EFF2FE1 		bx	lr
  59              	.L4:
  60              		.align	2
  61              	.L3:
  62 0080 00000000 		.word	LL_1khz_control_input
  63              	.LFE4:
  65              		.global	__floatsidf
  66              		.global	__divdf3
  67              		.global	__truncdfsf2
  68              		.global	__muldf3
  69              		.global	__fixdfsi
  70              		.global	__floatsisf
  71              		.global	__subsf3
  72              		.global	__extendsfdf2
  73              		.global	__adddf3
  74              		.align	2
  75              		.global	GenMotorCmmd_Linear
  77              	GenMotorCmmd_Linear:
  78              	.LFB3:
  79              	.LM7:
  80              		@ Function supports interworking.
  81              		@ args = 0, pretend = 0, frame = 0
  82              		@ frame_needed = 0, uses_anonymous_args = 0
  83 0084 F04F2DE9 		stmfd	sp!, {r4, r5, r6, r7, r8, r9, sl, fp, lr}
  84              	.LCFI1:
  85              	.LM8:
  86 0088 30339FE5 		ldr	r3, .L11+56
  87 008c 0220D3E5 		ldrb	r2, [r3, #2]	@ zero_extendqisi2
  88 0090 000052E3 		cmp	r2, #0
  89 0094 9200000A 		beq	.L6
  90              	.LM9:
  91 0098 24439FE5 		ldr	r4, .L11+60
  92 009c 0400D4E5 		ldrb	r0, [r4, #4]	@ zero_extendqisi2
  93 00a0 FEFFFFEB 		bl	__floatsidf
  94 00a4 0121A0E3 		mov	r2, #1073741824
  95 00a8 D32882E2 		add	r2, r2, #13828096
  96 00ac 222B82E2 		add	r2, r2, #34816
  97 00b0 0030A0E3 		mov	r3, #0
  98 00b4 FEFFFFEB 		bl	__divdf3
  99 00b8 FEFFFFEB 		bl	__truncdfsf2
 100 00bc 04539FE5 		ldr	r5, .L11+64
 101 00c0 000085E5 		str	r0, [r5, #0]	@ float
 102              	.LM10:
 103 00c4 0300D4E5 		ldrb	r0, [r4, #3]	@ zero_extendqisi2
 104 00c8 FEFFFFEB 		bl	__floatsidf
 105 00cc 0121A0E3 		mov	r2, #1073741824
 106 00d0 D32882E2 		add	r2, r2, #13828096
 107 00d4 222B82E2 		add	r2, r2, #34816
 108 00d8 0030A0E3 		mov	r3, #0
 109 00dc FEFFFFEB 		bl	__divdf3
 110 00e0 FEFFFFEB 		bl	__truncdfsf2
 111 00e4 E0B29FE5 		ldr	fp, .L11+68
 112 00e8 00008BE5 		str	r0, [fp, #0]	@ float
 113              	.LM11:
 114 00ec 0500D4E5 		ldrb	r0, [r4, #5]	@ zero_extendqisi2
 115 00f0 FEFFFFEB 		bl	__floatsidf
 116 00f4 0121A0E3 		mov	r2, #1073741824
 117 00f8 D32882E2 		add	r2, r2, #13828096
 118 00fc 0030A0E3 		mov	r3, #0
 119 0100 222B82E2 		add	r2, r2, #34816
 120 0104 FEFFFFEB 		bl	__divdf3
 121 0108 FEFFFFEB 		bl	__truncdfsf2
 122 010c BC329FE5 		ldr	r3, .L11+72
 123 0110 BC429FE5 		ldr	r4, .L11+76
 124 0114 000083E5 		str	r0, [r3, #0]	@ float
 125              	.L8:
 126              	.LM12:
 127 0118 2C0094E5 		ldr	r0, [r4, #44]
 128 011c FEFFFFEB 		bl	__floatsidf
 129 0120 262E8FE2 		adr	r2, .L11
 130 0124 0C0092E8 		ldmia	r2, {r2-r3}
 131 0128 FEFFFFEB 		bl	__muldf3
 132 012c FEFFFFEB 		bl	__truncdfsf2
 133 0130 A0329FE5 		ldr	r3, .L11+80
 134 0134 0080A0E1 		mov	r8, r0
 135 0138 008083E5 		str	r8, [r3, #0]	@ float
 136              	.LM13:
 137 013c 280094E5 		ldr	r0, [r4, #40]
 138 0140 FEFFFFEB 		bl	__floatsidf
 139 0144 8F2F8FE2 		adr	r2, .L11
 140 0148 0C0092E8 		ldmia	r2, {r2-r3}
 141 014c FEFFFFEB 		bl	__muldf3
 142 0150 FEFFFFEB 		bl	__truncdfsf2
 143 0154 80329FE5 		ldr	r3, .L11+84
 144 0158 00A0A0E1 		mov	sl, r0
 145 015c 00A083E5 		str	sl, [r3, #0]	@ float
 146              	.LM14:
 147 0160 300094E5 		ldr	r0, [r4, #48]
 148 0164 FEFFFFEB 		bl	__floatsidf
 149 0168 862F8FE2 		adr	r2, .L11
 150 016c 0C0092E8 		ldmia	r2, {r2-r3}
 151 0170 FEFFFFEB 		bl	__muldf3
 152 0174 FEFFFFEB 		bl	__truncdfsf2
 153              	.LM15:
 154 0178 60629FE5 		ldr	r6, .L11+88
 155              	.LM16:
 156 017c 60329FE5 		ldr	r3, .L11+92
 157 0180 0090A0E1 		mov	r9, r0
 158 0184 009083E5 		str	r9, [r3, #0]	@ float
 159              	.LM17:
 160 0188 FC00D6E1 		ldrsh	r0, [r6, #12]
 161 018c FEFFFFEB 		bl	__floatsidf
 162 0190 7E2F8FE2 		adr	r2, .L11+8
 163 0194 0C0092E8 		ldmia	r2, {r2-r3}
 164 0198 FEFFFFEB 		bl	__muldf3
 165 019c FEFFFFEB 		bl	__fixdfsi
 166 01a0 40729FE5 		ldr	r7, .L11+96
 167 01a4 B000C7E1 		strh	r0, [r7, #0]	@ movhi
 168              	.LM18:
 169 01a8 F200D6E1 		ldrsh	r0, [r6, #2]
 170 01ac FEFFFFEB 		bl	__floatsisf
 171 01b0 001095E5 		ldr	r1, [r5, #0]	@ float
 172 01b4 FEFFFFEB 		bl	__subsf3
 173 01b8 FEFFFFEB 		bl	__extendsfdf2
 174 01bc 752F8FE2 		adr	r2, .L11+16
 175 01c0 0C0092E8 		ldmia	r2, {r2-r3}
 176 01c4 FEFFFFEB 		bl	__muldf3
 177 01c8 0040A0E1 		mov	r4, r0
 178 01cc F800D6E1 		ldrsh	r0, [r6, #8]
 179 01d0 0150A0E1 		mov	r5, r1
 180 01d4 FEFFFFEB 		bl	__floatsisf
 181 01d8 0810A0E1 		mov	r1, r8
 182 01dc FEFFFFEB 		bl	__subsf3
 183 01e0 FEFFFFEB 		bl	__extendsfdf2
 184 01e4 6D2F8FE2 		adr	r2, .L11+24
 185 01e8 0C0092E8 		ldmia	r2, {r2-r3}
 186 01ec FEFFFFEB 		bl	__muldf3
 187 01f0 0020A0E1 		mov	r2, r0
 188 01f4 0130A0E1 		mov	r3, r1
 189 01f8 0400A0E1 		mov	r0, r4
 190 01fc 0510A0E1 		mov	r1, r5
 191 0200 FEFFFFEB 		bl	__adddf3
 192 0204 FEFFFFEB 		bl	__fixdfsi
 193 0208 B200C7E1 		strh	r0, [r7, #2]	@ movhi
 194              	.LM19:
 195 020c F000D6E1 		ldrsh	r0, [r6, #0]
 196 0210 FEFFFFEB 		bl	__floatsisf
 197 0214 00109BE5 		ldr	r1, [fp, #0]	@ float
 198 0218 FEFFFFEB 		bl	__subsf3
 199 021c FEFFFFEB 		bl	__extendsfdf2
 200 0220 172E8FE2 		adr	r2, .L11+16
 201 0224 0C0092E8 		ldmia	r2, {r2-r3}
 202 0228 FEFFFFEB 		bl	__muldf3
 203 022c 0040A0E1 		mov	r4, r0
 204 0230 F600D6E1 		ldrsh	r0, [r6, #6]
 205 0234 0150A0E1 		mov	r5, r1
 206 0238 FEFFFFEB 		bl	__floatsisf
 207 023c 0A10A0E1 		mov	r1, sl
 208 0240 FEFFFFEB 		bl	__subsf3
 209 0244 FEFFFFEB 		bl	__extendsfdf2
 210 0248 152E8FE2 		adr	r2, .L11+24
 211 024c 0C0092E8 		ldmia	r2, {r2-r3}
 212 0250 FEFFFFEB 		bl	__muldf3
 213 0254 0020A0E1 		mov	r2, r0
 214 0258 0130A0E1 		mov	r3, r1
 215 025c 0400A0E1 		mov	r0, r4
 216 0260 0510A0E1 		mov	r1, r5
 217 0264 FEFFFFEB 		bl	__adddf3
 218 0268 FEFFFFEB 		bl	__fixdfsi
 219 026c B400C7E1 		strh	r0, [r7, #4]	@ movhi
 220              	.LM20:
 221 0270 F400D6E1 		ldrsh	r0, [r6, #4]
 222 0274 FEFFFFEB 		bl	__floatsisf
 223 0278 50319FE5 		ldr	r3, .L11+72
 224 027c 001093E5 		ldr	r1, [r3, #0]	@ float
 225 0280 FEFFFFEB 		bl	__subsf3
 226 0284 FEFFFFEB 		bl	__extendsfdf2
 227 0288 462F8FE2 		adr	r2, .L11+32
 228 028c 0C0092E8 		ldmia	r2, {r2-r3}
 229 0290 FEFFFFEB 		bl	__muldf3
 230 0294 0040A0E1 		mov	r4, r0
 231 0298 FA00D6E1 		ldrsh	r0, [r6, #10]
 232 029c 0150A0E1 		mov	r5, r1
 233 02a0 FEFFFFEB 		bl	__floatsisf
 234 02a4 0910A0E1 		mov	r1, r9
 235 02a8 FEFFFFEB 		bl	__subsf3
 236 02ac FEFFFFEB 		bl	__extendsfdf2
 237 02b0 F8208FE2 		adr	r2, .L11+40
 238 02b4 0C0092E8 		ldmia	r2, {r2-r3}
 239 02b8 FEFFFFEB 		bl	__muldf3
 240 02bc 0020A0E1 		mov	r2, r0
 241 02c0 0130A0E1 		mov	r3, r1
 242 02c4 0400A0E1 		mov	r0, r4
 243 02c8 0510A0E1 		mov	r1, r5
 244 02cc FEFFFFEB 		bl	__adddf3
 245 02d0 FEFFFFEB 		bl	__fixdfsi
 246 02d4 B600C7E1 		strh	r0, [r7, #6]	@ movhi
 247              	.LM21:
 248 02d8 0700A0E1 		mov	r0, r7
 249              	.LM22:
 250 02dc F04FBDE8 		ldmfd	sp!, {r4, r5, r6, r7, r8, r9, sl, fp, lr}
 251              	.LM23:
 252 02e0 FEFFFFEA 		b	CalMotorSpeedFromDev
 253              	.L6:
 254              	.LM24:
 255 02e4 E8409FE5 		ldr	r4, .L11+76
 256 02e8 200094E5 		ldr	r0, [r4, #32]
 257 02ec FEFFFFEB 		bl	__floatsidf
 258 02f0 C0208FE2 		adr	r2, .L11+48
 259 02f4 0C0092E8 		ldmia	r2, {r2-r3}
 260 02f8 FEFFFFEB 		bl	__muldf3
 261 02fc 0121A0E3 		mov	r2, #1073741824
 262 0300 8F2882E2 		add	r2, r2, #9371648
 263 0304 012982E2 		add	r2, r2, #16384
 264 0308 0030A0E3 		mov	r3, #0
 265 030c FEFFFFEB 		bl	__divdf3
 266 0310 FEFFFFEB 		bl	__truncdfsf2
 267 0314 AC509FE5 		ldr	r5, .L11+64
 268 0318 000085E5 		str	r0, [r5, #0]	@ float
 269              	.LM25:
 270 031c 1C0094E5 		ldr	r0, [r4, #28]
 271 0320 FEFFFFEB 		bl	__floatsidf
 272 0324 8C208FE2 		adr	r2, .L11+48
 273 0328 0C0092E8 		ldmia	r2, {r2-r3}
 274 032c FEFFFFEB 		bl	__muldf3
 275 0330 0121A0E3 		mov	r2, #1073741824
 276 0334 8F2882E2 		add	r2, r2, #9371648
 277 0338 012982E2 		add	r2, r2, #16384
 278 033c 0030A0E3 		mov	r3, #0
 279 0340 FEFFFFEB 		bl	__divdf3
 280 0344 FEFFFFEB 		bl	__truncdfsf2
 281 0348 7CB09FE5 		ldr	fp, .L11+68
 282 034c 00008BE5 		str	r0, [fp, #0]	@ float
 283              	.LM26:
 284 0350 240094E5 		ldr	r0, [r4, #36]
 285 0354 FEFFFFEB 		bl	__floatsidf
 286 0358 58208FE2 		adr	r2, .L11+48
 287 035c 0C0092E8 		ldmia	r2, {r2-r3}
 288 0360 FEFFFFEB 		bl	__muldf3
 289 0364 0121A0E3 		mov	r2, #1073741824
 290 0368 8F2882E2 		add	r2, r2, #9371648
 291 036c 0030A0E3 		mov	r3, #0
 292 0370 012982E2 		add	r2, r2, #16384
 293 0374 FEFFFFEB 		bl	__divdf3
 294 0378 FEFFFFEB 		bl	__truncdfsf2
 295 037c 4C309FE5 		ldr	r3, .L11+72
 296 0380 000083E5 		str	r0, [r3, #0]	@ float
 297 0384 63FFFFEA 		b	.L8
 298              	.L12:
 299              		.align	2
 300              	.L11:
 301 0388 649D313F 		.word	1060216164
 302 038c 4786FC2F 		.word	805078599
 303 0390 CCCC0CC0 		.word	-1072902964
 304 0394 CDCCCCCC 		.word	-858993459
 305 0398 A52CE73F 		.word	1072114853
 306 039c 226C787A 		.word	2054712354
 307 03a0 CD36E53F 		.word	1071986381
 308 03a4 49BA66F2 		.word	-228148663
 309 03a8 832F1340 		.word	1074999171
 310 03ac 3A234A7B 		.word	2068456250
 311 03b0 11901140 		.word	1074892817
 312 03b4 397F130A 		.word	169049913
 313 03b8 46DF913F 		.word	1066524486
 314 03bc 4DC90777 		.word	1996998989
 315 03c0 00000000 		.word	WO_SDK
 316 03c4 00000000 		.word	WO_Feedback
 317 03c8 00000000 		.word	current_roll
 318 03cc 00000000 		.word	current_pitch
 319 03d0 00000000 		.word	current_yaw
 320 03d4 00000000 		.word	RO_ALL_Data
 321 03d8 00000000 		.word	current_roll_vel
 322 03dc 00000000 		.word	current_pitch_vel
 323 03e0 00000000 		.word	WO_DESIRED_Input
 324 03e4 00000000 		.word	current_yaw_vel
 325 03e8 00000000 		.word	motor_speed_deviation
 326              	.LFE3:
 328              		.align	2
 329              		.global	GetMotorCmmdFromUData
 331              	GetMotorCmmdFromUData:
 332              	.LFB2:
 333              	.LM27:
 334              		@ Function supports interworking.
 335              		@ args = 0, pretend = 0, frame = 16
 336              		@ frame_needed = 0, uses_anonymous_args = 0
 337 03ec F0402DE9 		stmfd	sp!, {r4, r5, r6, r7, lr}
 338              	.LCFI2:
 339 03f0 10D04DE2 		sub	sp, sp, #16
 340              	.LCFI3:
 341              	.LM28:
 342 03f4 0F008DE8 		stmia	sp, {r0, r1, r2, r3}
 343              	.LM29:
 344 03f8 0400A0E3 		mov	r0, #4
 345              	.LM30:
 346 03fc B240DDE1 		ldrh	r4, [sp, #2]
 347 0400 B870DDE1 		ldrh	r7, [sp, #8]
 348 0404 B460DDE1 		ldrh	r6, [sp, #4]
 349 0408 B050DDE1 		ldrh	r5, [sp, #0]
 350              	.LM31:
 351 040c FEFFFFEB 		bl	malloc
 352              	.LM32:
 353 0410 0030A0E3 		mov	r3, #0
 354              	.LM33:
 355 0414 010054E3 		cmp	r4, #1
 356              	.LM34:
 357 0418 0020A0E1 		mov	r2, r0
 358 041c 0130C2E4 		strb	r3, [r2], #1
 359 0420 0130C0E5 		strb	r3, [r0, #1]
 360 0424 0230C0E5 		strb	r3, [r0, #2]
 361 0428 0330C0E5 		strb	r3, [r0, #3]
 362              	.LM35:
 363 042c 14308302 		addeq	r3, r3, #20
 364 0430 0030C005 		streqb	r3, [r0, #0]
 365              	.LM36:
 366 0434 0030C015 		strneb	r3, [r0, #0]
 367              	.LM37:
 368 0438 010055E3 		cmp	r5, #1
 369 043c 1430A003 		moveq	r3, #20
 370 0440 0030A013 		movne	r3, #0
 371 0444 0030C205 		streqb	r3, [r2, #0]
 372 0448 0030C215 		strneb	r3, [r2, #0]
 373              	.LM38:
 374 044c 010056E3 		cmp	r6, #1
 375 0450 1430A003 		moveq	r3, #20
 376 0454 0030A013 		movne	r3, #0
 377              	.LM39:
 378 0458 021080E2 		add	r1, r0, #2
 379              	.LM40:
 380 045c 0030C105 		streqb	r3, [r1, #0]
 381 0460 0030C115 		strneb	r3, [r1, #0]
 382              	.LM41:
 383 0464 010057E3 		cmp	r7, #1
 384              	.LM42:
 385 0468 03C080E2 		add	ip, r0, #3
 386              	.LM43:
 387 046c 1430A003 		moveq	r3, #20
 388 0470 0030A013 		movne	r3, #0
 389 0474 0030CC05 		streqb	r3, [ip, #0]
 390 0478 0030CC15 		strneb	r3, [ip, #0]
 391              	.LM44:
 392 047c 10D08DE2 		add	sp, sp, #16
 393 0480 F040BDE8 		ldmfd	sp!, {r4, r5, r6, r7, lr}
 394 0484 1EFF2FE1 		bx	lr
 395              	.LFE2:
 397              		.comm	motor_speed_deviation,8,2
 398              		.comm	current_roll,4,4
 399              		.comm	current_pitch,4,4
 400              		.comm	current_yaw,4,4
 401              		.comm	current_roll_vel,4,4
 402              		.comm	current_pitch_vel,4,4
 403              		.comm	current_yaw_vel,4,4
 404              		.comm	desired_roll,4,4
 405              		.comm	desired_pitch,4,4
 406              		.comm	desired_yaw,4,4
 493              	.Letext0: