   1              		.file	"i2c1.c"
   9              	.Ltext0:
  10              		.global	I2C1MasterState
  11              		.bss
  12              		.align	2
  15              	I2C1MasterState:
  16 0000 00000000 		.space	4
  17              		.global	I2C1Count
  18              		.align	2
  21              	I2C1Count:
  22 0004 00000000 		.space	4
  23              		.global	WrIndex1
  24              		.align	2
  27              	WrIndex1:
  28 0008 00000000 		.space	4
  29              		.global	lastI2c1Error
  32              	lastI2c1Error:
  33 000c 00       		.space	1
  34              		.text
  35              		.align	2
  36              		.global	I2C1MasterHandler
  38              	I2C1MasterHandler:
  39              	.LFB2:
  40              	.LM1:
  41              		@ Function supports interworking.
  42              		@ args = 0, pretend = 0, frame = 4
  43              		@ frame_needed = 1, uses_anonymous_args = 0
  44 0000 0DC0A0E1 		mov	ip, sp
  45              	.LCFI0:
  46 0004 00D82DE9 		stmfd	sp!, {fp, ip, lr, pc}
  47              	.LCFI1:
  48 0008 04B04CE2 		sub	fp, ip, #4
  49              	.LCFI2:
  50 000c 04D04DE2 		sub	sp, sp, #4
  51              	.LCFI3:
  52              	.LM2:
  53 0010 4E32A0E3 		mov	r3, #-536870908
  54 0014 173983E2 		add	r3, r3, #376832
  55 0018 003093E5 		ldr	r3, [r3, #0]
  56 001c 0D304BE5 		strb	r3, [fp, #-13]
  57              	.LM3:
  58 0020 0D305BE5 		ldrb	r3, [fp, #-13]	@ zero_extendqisi2
  59 0024 083043E2 		sub	r3, r3, #8
  60 0028 280053E3 		cmp	r3, #40
  61 002c 03F19F97 		ldrls	pc, [pc, r3, asl #2]
  62 0030 9E0000EA 		b	.L2
  63              		.align	2
  64              	.L8:
  65 0034 D8000000 		.word	.L3
  66 0038 B0020000 		.word	.L2
  67 003c B0020000 		.word	.L2
  68 0040 B0020000 		.word	.L2
  69 0044 B0020000 		.word	.L2
  70 0048 B0020000 		.word	.L2
  71 004c B0020000 		.word	.L2
  72 0050 B0020000 		.word	.L2
  73 0054 B0020000 		.word	.L2
  74 0058 B0020000 		.word	.L2
  75 005c B0020000 		.word	.L2
  76 0060 B0020000 		.word	.L2
  77 0064 B0020000 		.word	.L2
  78 0068 B0020000 		.word	.L2
  79 006c B0020000 		.word	.L2
  80 0070 B0020000 		.word	.L2
  81 0074 10010000 		.word	.L4
  82 0078 B0020000 		.word	.L2
  83 007c B0020000 		.word	.L2
  84 0080 B0020000 		.word	.L2
  85 0084 B0020000 		.word	.L2
  86 0088 B0020000 		.word	.L2
  87 008c B0020000 		.word	.L2
  88 0090 B0020000 		.word	.L2
  89 0094 5C020000 		.word	.L5
  90 0098 B0020000 		.word	.L2
  91 009c B0020000 		.word	.L2
  92 00a0 B0020000 		.word	.L2
  93 00a4 B0020000 		.word	.L2
  94 00a8 B0020000 		.word	.L2
  95 00ac B0020000 		.word	.L2
  96 00b0 B0020000 		.word	.L2
  97 00b4 6C010000 		.word	.L6
  98 00b8 B0020000 		.word	.L2
  99 00bc B0020000 		.word	.L2
 100 00c0 B0020000 		.word	.L2
 101 00c4 B0020000 		.word	.L2
 102 00c8 B0020000 		.word	.L2
 103 00cc B0020000 		.word	.L2
 104 00d0 B0020000 		.word	.L2
 105 00d4 1C020000 		.word	.L7
 106              	.L3:
 107              	.LM4:
 108 00d8 8E22A0E3 		mov	r2, #-536870904
 109 00dc 172982E2 		add	r2, r2, #376832
 110 00e0 F8319FE5 		ldr	r3, .L16
 111 00e4 0030D3E5 		ldrb	r3, [r3, #0]	@ zero_extendqisi2
 112 00e8 003082E5 		str	r3, [r2, #0]
 113              	.LM5:
 114 00ec 0E32A0E3 		mov	r3, #-536870912
 115 00f0 173983E2 		add	r3, r3, #376832
 116 00f4 183083E2 		add	r3, r3, #24
 117 00f8 2820A0E3 		mov	r2, #40
 118 00fc 002083E5 		str	r2, [r3, #0]
 119              	.LM6:
 120 0100 DC219FE5 		ldr	r2, .L16+4
 121 0104 0130A0E3 		mov	r3, #1
 122 0108 003082E5 		str	r3, [r2, #0]
 123              	.LM7:
 124 010c 6C0000EA 		b	.L9
 125              	.L4:
 126              	.LM8:
 127 0110 CC319FE5 		ldr	r3, .L16+4
 128 0114 003093E5 		ldr	r3, [r3, #0]
 129 0118 010053E3 		cmp	r3, #1
 130 011c 0C00001A 		bne	.L10
 131              	.LM9:
 132 0120 8E22A0E3 		mov	r2, #-536870904
 133 0124 172982E2 		add	r2, r2, #376832
 134 0128 B0319FE5 		ldr	r3, .L16
 135 012c 0130D3E5 		ldrb	r3, [r3, #1]	@ zero_extendqisi2
 136 0130 003082E5 		str	r3, [r2, #0]
 137              	.LM10:
 138 0134 AC319FE5 		ldr	r3, .L16+8
 139 0138 003093E5 		ldr	r3, [r3, #0]
 140 013c 012083E2 		add	r2, r3, #1
 141 0140 A0319FE5 		ldr	r3, .L16+8
 142 0144 002083E5 		str	r2, [r3, #0]
 143              	.LM11:
 144 0148 94219FE5 		ldr	r2, .L16+4
 145 014c 0430A0E3 		mov	r3, #4
 146 0150 003082E5 		str	r3, [r2, #0]
 147              	.L10:
 148              	.LM12:
 149 0154 0E32A0E3 		mov	r3, #-536870912
 150 0158 173983E2 		add	r3, r3, #376832
 151 015c 183083E2 		add	r3, r3, #24
 152 0160 0820A0E3 		mov	r2, #8
 153 0164 002083E5 		str	r2, [r3, #0]
 154              	.LM13:
 155 0168 550000EA 		b	.L9
 156              	.L6:
 157              	.LM14:
 158 016c 74319FE5 		ldr	r3, .L16+8
 159 0170 002093E5 		ldr	r2, [r3, #0]
 160 0174 70319FE5 		ldr	r3, .L16+12
 161 0178 003093E5 		ldr	r3, [r3, #0]
 162 017c 030052E1 		cmp	r2, r3
 163 0180 1000002A 		bcs	.L12
 164              	.LM15:
 165 0184 8E22A0E3 		mov	r2, #-536870904
 166 0188 172982E2 		add	r2, r2, #376832
 167 018c 54319FE5 		ldr	r3, .L16+8
 168 0190 003093E5 		ldr	r3, [r3, #0]
 169 0194 011083E2 		add	r1, r3, #1
 170 0198 40319FE5 		ldr	r3, .L16
 171 019c 0130D3E7 		ldrb	r3, [r3, r1]	@ zero_extendqisi2
 172 01a0 003082E5 		str	r3, [r2, #0]
 173              	.LM16:
 174 01a4 3C319FE5 		ldr	r3, .L16+8
 175 01a8 003093E5 		ldr	r3, [r3, #0]
 176 01ac 012083E2 		add	r2, r3, #1
 177 01b0 30319FE5 		ldr	r3, .L16+8
 178 01b4 002083E5 		str	r2, [r3, #0]
 179              	.LM17:
 180 01b8 24219FE5 		ldr	r2, .L16+4
 181 01bc 0430A0E3 		mov	r3, #4
 182 01c0 003082E5 		str	r3, [r2, #0]
 183 01c4 0B0000EA 		b	.L14
 184              	.L12:
 185              	.LM18:
 186 01c8 14219FE5 		ldr	r2, .L16+4
 187 01cc 0730A0E3 		mov	r3, #7
 188 01d0 003082E5 		str	r3, [r2, #0]
 189              	.LM19:
 190 01d4 0E32A0E3 		mov	r3, #-536870912
 191 01d8 173983E2 		add	r3, r3, #376832
 192 01dc 1020A0E3 		mov	r2, #16
 193 01e0 002083E5 		str	r2, [r3, #0]
 194              	.LM20:
 195 01e4 0E32A0E3 		mov	r3, #-536870912
 196 01e8 173983E2 		add	r3, r3, #376832
 197 01ec 183083E2 		add	r3, r3, #24
 198 01f0 0820A0E3 		mov	r2, #8
 199 01f4 002083E5 		str	r2, [r3, #0]
 200              	.L14:
 201              	.LM21:
 202 01f8 0E32A0E3 		mov	r3, #-536870912
 203 01fc 173983E2 		add	r3, r3, #376832
 204 0200 183083E2 		add	r3, r3, #24
 205 0204 0820A0E3 		mov	r2, #8
 206 0208 002083E5 		str	r2, [r3, #0]
 207              	.LM22:
 208 020c DC209FE5 		ldr	r2, .L16+16
 209 0210 0030A0E3 		mov	r3, #0
 210 0214 0030C2E5 		strb	r3, [r2, #0]
 211              	.LM23:
 212 0218 290000EA 		b	.L9
 213              	.L7:
 214              	.LM24:
 215 021c C0209FE5 		ldr	r2, .L16+4
 216 0220 0530A0E3 		mov	r3, #5
 217 0224 003082E5 		str	r3, [r2, #0]
 218              	.LM25:
 219 0228 0E32A0E3 		mov	r3, #-536870912
 220 022c 173983E2 		add	r3, r3, #376832
 221 0230 1020A0E3 		mov	r2, #16
 222 0234 002083E5 		str	r2, [r3, #0]
 223              	.LM26:
 224 0238 0E32A0E3 		mov	r3, #-536870912
 225 023c 173983E2 		add	r3, r3, #376832
 226 0240 183083E2 		add	r3, r3, #24
 227 0244 0820A0E3 		mov	r2, #8
 228 0248 002083E5 		str	r2, [r3, #0]
 229              	.LM27:
 230 024c 9C209FE5 		ldr	r2, .L16+16
 231 0250 0230A0E3 		mov	r3, #2
 232 0254 0030C2E5 		strb	r3, [r2, #0]
 233              	.LM28:
 234 0258 190000EA 		b	.L9
 235              	.L5:
 236              	.LM29:
 237 025c 0E32A0E3 		mov	r3, #-536870912
 238 0260 173983E2 		add	r3, r3, #376832
 239 0264 183083E2 		add	r3, r3, #24
 240 0268 0820A0E3 		mov	r2, #8
 241 026c 002083E5 		str	r2, [r3, #0]
 242              	.LM30:
 243 0270 6C209FE5 		ldr	r2, .L16+4
 244 0274 0530A0E3 		mov	r3, #5
 245 0278 003082E5 		str	r3, [r2, #0]
 246              	.LM31:
 247 027c 0E32A0E3 		mov	r3, #-536870912
 248 0280 173983E2 		add	r3, r3, #376832
 249 0284 1020A0E3 		mov	r2, #16
 250 0288 002083E5 		str	r2, [r3, #0]
 251              	.LM32:
 252 028c 0E32A0E3 		mov	r3, #-536870912
 253 0290 173983E2 		add	r3, r3, #376832
 254 0294 183083E2 		add	r3, r3, #24
 255 0298 0820A0E3 		mov	r2, #8
 256 029c 002083E5 		str	r2, [r3, #0]
 257              	.LM33:
 258 02a0 48209FE5 		ldr	r2, .L16+16
 259 02a4 0130A0E3 		mov	r3, #1
 260 02a8 0030C2E5 		strb	r3, [r2, #0]
 261              	.LM34:
 262 02ac 040000EA 		b	.L9
 263              	.L2:
 264              	.LM35:
 265 02b0 0E32A0E3 		mov	r3, #-536870912
 266 02b4 173983E2 		add	r3, r3, #376832
 267 02b8 183083E2 		add	r3, r3, #24
 268 02bc 0820A0E3 		mov	r2, #8
 269 02c0 002083E5 		str	r2, [r3, #0]
 270              	.L9:
 271              	.LM36:
 272 02c4 0030A0E3 		mov	r3, #0
 273 02c8 FD3E43E2 		sub	r3, r3, #4048
 274 02cc 0020A0E3 		mov	r2, #0
 275 02d0 002083E5 		str	r2, [r3, #0]
 276              	.LM37:
 277 02d4 0CD04BE2 		sub	sp, fp, #12
 278 02d8 00689DE8 		ldmfd	sp, {fp, sp, lr}
 279 02dc 1EFF2FE1 		bx	lr
 280              	.L17:
 281              		.align	2
 282              	.L16:
 283 02e0 00000000 		.word	I2C1MasterBuffer
 284 02e4 00000000 		.word	I2C1MasterState
 285 02e8 00000000 		.word	WrIndex1
 286 02ec 00000000 		.word	I2C1WriteLength
 287 02f0 00000000 		.word	lastI2c1Error
 288              	.LFE2:
 290              		.bss
 291              	ceCnt.1589:
 292 000d 00       		.space	1
 293              	mincCnt.1588:
 294 000e 00       		.space	1
 295              	mfsCnt.1587:
 296 000f 00       		.space	1
 297              		.align	1
 298              	cnt.1586:
 299 0010 0000     		.space	2
 300 0012 0000     		.text
 301              		.align	2
 302              		.global	fireFlyLedHandler
 304              	fireFlyLedHandler:
 305              	.LFB3:
 306              	.LM38:
 307              		@ Function supports interworking.
 308              		@ args = 0, pretend = 0, frame = 12
 309              		@ frame_needed = 1, uses_anonymous_args = 0
 310 02f4 0DC0A0E1 		mov	ip, sp
 311              	.LCFI4:
 312 02f8 00D82DE9 		stmfd	sp!, {fp, ip, lr, pc}
 313              	.LCFI5:
 314 02fc 04B04CE2 		sub	fp, ip, #4
 315              	.LCFI6:
 316 0300 0CD04DE2 		sub	sp, sp, #12
 317              	.LCFI7:
 318              	.LM39:
 319 0304 0030A0E3 		mov	r3, #0
 320 0308 B2314BE1 		strh	r3, [fp, #-18]	@ movhi
 321              	.LM40:
 322 030c F43A9FE5 		ldr	r3, .L149
 323 0310 B235D3E1 		ldrh	r3, [r3, #82]
 324 0314 0338A0E1 		mov	r3, r3, asl #16
 325 0318 2338A0E1 		mov	r3, r3, lsr #16
 326 031c 023C03E2 		and	r3, r3, #512
 327 0320 000053E3 		cmp	r3, #0
 328 0324 0200000A 		beq	.L19
 329              	.LM41:
 330 0328 B2315BE1 		ldrh	r3, [fp, #-18]	@ movhi
 331 032c 023083E3 		orr	r3, r3, #2
 332 0330 B2314BE1 		strh	r3, [fp, #-18]	@ movhi
 333              	.L19:
 334              	.LM42:
 335 0334 CC3A9FE5 		ldr	r3, .L149
 336 0338 B235D3E1 		ldrh	r3, [r3, #82]
 337 033c 0338A0E1 		mov	r3, r3, asl #16
 338 0340 2338A0E1 		mov	r3, r3, lsr #16
 339 0344 013B03E2 		and	r3, r3, #1024
 340 0348 000053E3 		cmp	r3, #0
 341 034c 0200000A 		beq	.L21
 342              	.LM43:
 343 0350 B2315BE1 		ldrh	r3, [fp, #-18]	@ movhi
 344 0354 043083E3 		orr	r3, r3, #4
 345 0358 B2314BE1 		strh	r3, [fp, #-18]	@ movhi
 346              	.L21:
 347              	.LM44:
 348 035c A43A9FE5 		ldr	r3, .L149
 349 0360 B235D3E1 		ldrh	r3, [r3, #82]
 350 0364 0338A0E1 		mov	r3, r3, asl #16
 351 0368 2338A0E1 		mov	r3, r3, lsr #16
 352 036c 103003E2 		and	r3, r3, #16
 353 0370 000053E3 		cmp	r3, #0
 354 0374 0600000A 		beq	.L23
 355 0378 8C3A9FE5 		ldr	r3, .L149+4
 356 037c 0030D3E5 		ldrb	r3, [r3, #0]	@ zero_extendqisi2
 357 0380 040053E3 		cmp	r3, #4
 358 0384 0200008A 		bhi	.L23
 359              	.LM45:
 360 0388 B2315BE1 		ldrh	r3, [fp, #-18]	@ movhi
 361 038c 083083E3 		orr	r3, r3, #8
 362 0390 B2314BE1 		strh	r3, [fp, #-18]	@ movhi
 363              	.L23:
 364              	.LM46:
 365 0394 6C3A9FE5 		ldr	r3, .L149
 366 0398 B235D3E1 		ldrh	r3, [r3, #82]
 367 039c 0338A0E1 		mov	r3, r3, asl #16
 368 03a0 4338A0E1 		mov	r3, r3, asr #16
 369 03a4 000053E3 		cmp	r3, #0
 370 03a8 0D0000AA 		bge	.L26
 371 03ac 5C3A9FE5 		ldr	r3, .L149+8
 372 03b0 0030D3E5 		ldrb	r3, [r3, #0]	@ zero_extendqisi2
 373 03b4 040053E3 		cmp	r3, #4
 374 03b8 0900008A 		bhi	.L26
 375 03bc 443A9FE5 		ldr	r3, .L149
 376 03c0 B235D3E1 		ldrh	r3, [r3, #82]
 377 03c4 0338A0E1 		mov	r3, r3, asl #16
 378 03c8 2338A0E1 		mov	r3, r3, lsr #16
 379 03cc 103003E2 		and	r3, r3, #16
 380 03d0 000053E3 		cmp	r3, #0
 381 03d4 0200001A 		bne	.L26
 382              	.LM47:
 383 03d8 B2315BE1 		ldrh	r3, [fp, #-18]	@ movhi
 384 03dc 103083E3 		orr	r3, r3, #16
 385 03e0 B2314BE1 		strh	r3, [fp, #-18]	@ movhi
 386              	.L26:
 387              	.LM48:
 388 03e4 1C3A9FE5 		ldr	r3, .L149
 389 03e8 B235D3E1 		ldrh	r3, [r3, #82]
 390 03ec 0338A0E1 		mov	r3, r3, asl #16
 391 03f0 2338A0E1 		mov	r3, r3, lsr #16
 392 03f4 013903E2 		and	r3, r3, #16384
 393 03f8 000053E3 		cmp	r3, #0
 394 03fc 0D00000A 		beq	.L30
 395 0400 0C3A9FE5 		ldr	r3, .L149+12
 396 0404 0030D3E5 		ldrb	r3, [r3, #0]	@ zero_extendqisi2
 397 0408 040053E3 		cmp	r3, #4
 398 040c 0900008A 		bhi	.L30
 399 0410 F0399FE5 		ldr	r3, .L149
 400 0414 B235D3E1 		ldrh	r3, [r3, #82]
 401 0418 0338A0E1 		mov	r3, r3, asl #16
 402 041c 2338A0E1 		mov	r3, r3, lsr #16
 403 0420 103003E2 		and	r3, r3, #16
 404 0424 000053E3 		cmp	r3, #0
 405 0428 0200001A 		bne	.L30
 406              	.LM49:
 407 042c B2315BE1 		ldrh	r3, [fp, #-18]	@ movhi
 408 0430 203083E3 		orr	r3, r3, #32
 409 0434 B2314BE1 		strh	r3, [fp, #-18]	@ movhi
 410              	.L30:
 411              	.LM50:
 412 0438 D8399FE5 		ldr	r3, .L149+16
 413 043c B030D3E1 		ldrh	r3, [r3, #0]
 414 0440 013083E2 		add	r3, r3, #1
 415 0444 0338A0E1 		mov	r3, r3, asl #16
 416 0448 2328A0E1 		mov	r2, r3, lsr #16
 417 044c C4399FE5 		ldr	r3, .L149+16
 418 0450 B020C3E1 		strh	r2, [r3, #0]	@ movhi
 419              	.LM51:
 420 0454 BC399FE5 		ldr	r3, .L149+16
 421 0458 B030D3E1 		ldrh	r3, [r3, #0]
 422 045c C80053E3 		cmp	r3, #200
 423 0460 0200001A 		bne	.L34
 424              	.LM52:
 425 0464 AC399FE5 		ldr	r3, .L149+16
 426 0468 0020A0E3 		mov	r2, #0
 427 046c B020C3E1 		strh	r2, [r3, #0]	@ movhi
 428              	.L34:
 429              	.LM53:
 430 0470 A4399FE5 		ldr	r3, .L149+20
 431 0474 0030D3E5 		ldrb	r3, [r3, #0]
 432 0478 FF3003E2 		and	r3, r3, #255
 433 047c 000053E3 		cmp	r3, #0
 434 0480 0900001A 		bne	.L36
 435              	.LM54:
 436 0484 B2315BE1 		ldrh	r3, [fp, #-18]	@ movhi
 437 0488 013083E3 		orr	r3, r3, #1
 438 048c B2314BE1 		strh	r3, [fp, #-18]	@ movhi
 439              	.LM55:
 440 0490 0030A0E3 		mov	r3, #0
 441 0494 15304BE5 		strb	r3, [fp, #-21]
 442              	.LM56:
 443 0498 0030A0E3 		mov	r3, #0
 444 049c 14304BE5 		strb	r3, [fp, #-20]
 445              	.LM57:
 446 04a0 0030E0E3 		mvn	r3, #0
 447 04a4 13304BE5 		strb	r3, [fp, #-19]
 448 04a8 800000EA 		b	.L38
 449              	.L36:
 450              	.LM58:
 451 04ac 6C399FE5 		ldr	r3, .L149+24
 452 04b0 283093E5 		ldr	r3, [r3, #40]
 453 04b4 FF3003E2 		and	r3, r3, #255
 454 04b8 030053E3 		cmp	r3, #3
 455 04bc 0E00001A 		bne	.L39
 456 04c0 5C399FE5 		ldr	r3, .L149+28
 457 04c4 B030D3E1 		ldrh	r3, [r3, #0]
 458 04c8 0338A0E1 		mov	r3, r3, asl #16
 459 04cc 4328A0E1 		mov	r2, r3, asr #16
 460 04d0 AB3DA0E3 		mov	r3, #10944
 461 04d4 383083E2 		add	r3, r3, #56
 462 04d8 030052E1 		cmp	r2, r3
 463 04dc 060000DA 		ble	.L39
 464              	.LM59:
 465 04e0 0030A0E3 		mov	r3, #0
 466 04e4 15304BE5 		strb	r3, [fp, #-21]
 467              	.LM60:
 468 04e8 0030E0E3 		mvn	r3, #0
 469 04ec 14304BE5 		strb	r3, [fp, #-20]
 470              	.LM61:
 471 04f0 0030A0E3 		mov	r3, #0
 472 04f4 13304BE5 		strb	r3, [fp, #-19]
 473              	.LM62:
 474 04f8 6C0000EA 		b	.L38
 475              	.L39:
 476              	.LM63:
 477 04fc 20399FE5 		ldr	r3, .L149+28
 478 0500 B030D3E1 		ldrh	r3, [r3, #0]
 479 0504 0338A0E1 		mov	r3, r3, asl #16
 480 0508 4328A0E1 		mov	r2, r3, asr #16
 481 050c AB3DA0E3 		mov	r3, #10944
 482 0510 373083E2 		add	r3, r3, #55
 483 0514 030052E1 		cmp	r2, r3
 484 0518 590000CA 		bgt	.L42
 485              	.LBB2:
 486              	.LM64:
 487 051c 00399FE5 		ldr	r3, .L149+28
 488 0520 B030D3E1 		ldrh	r3, [r3, #0]
 489 0524 0338A0E1 		mov	r3, r3, asl #16
 490 0528 4338A0E1 		mov	r3, r3, asr #16
 491 052c AB3D63E2 		rsb	r3, r3, #10944
 492 0530 383083E2 		add	r3, r3, #56
 493 0534 10300BE5 		str	r3, [fp, #-16]
 494              	.LM65:
 495 0538 10301BE5 		ldr	r3, [fp, #-16]
 496 053c FA0F53E3 		cmp	r3, #1000
 497 0540 0100009A 		bls	.L44
 498              	.LM66:
 499 0544 FA3FA0E3 		mov	r3, #1000
 500 0548 10300BE5 		str	r3, [fp, #-16]
 501              	.L44:
 502              	.LM67:
 503 054c CC389FE5 		ldr	r3, .L149+24
 504 0550 283093E5 		ldr	r3, [r3, #40]
 505 0554 FF3003E2 		and	r3, r3, #255
 506 0558 030053E3 		cmp	r3, #3
 507 055c 1800000A 		beq	.L46
 508              	.LM68:
 509 0560 10201BE5 		ldr	r2, [fp, #-16]
 510 0564 BC389FE5 		ldr	r3, .L149+32
 511 0568 921383E0 		umull	r1, r3, r2, r3
 512 056c 2331A0E1 		mov	r3, r3, lsr #2
 513 0570 10300BE5 		str	r3, [fp, #-16]
 514              	.LM69:
 515 0574 10301BE5 		ldr	r3, [fp, #-16]
 516 0578 0A3083E2 		add	r3, r3, #10
 517 057c 10300BE5 		str	r3, [fp, #-16]
 518              	.LM70:
 519 0580 10301BE5 		ldr	r3, [fp, #-16]
 520 0584 A50053E3 		cmp	r3, #165
 521 0588 0100009A 		bls	.L48
 522              	.LM71:
 523 058c A530A0E3 		mov	r3, #165
 524 0590 10300BE5 		str	r3, [fp, #-16]
 525              	.L48:
 526              	.LM72:
 527 0594 0030E0E3 		mvn	r3, #0
 528 0598 15304BE5 		strb	r3, [fp, #-21]
 529              	.LM73:
 530 059c 10301BE5 		ldr	r3, [fp, #-16]
 531 05a0 FF3003E2 		and	r3, r3, #255
 532 05a4 FF3463E2 		rsb	r3, r3, #-16777216
 533 05a8 FF3883E2 		add	r3, r3, #16711680
 534 05ac FF3C83E2 		add	r3, r3, #65280
 535 05b0 A53083E2 		add	r3, r3, #165
 536 05b4 14304BE5 		strb	r3, [fp, #-20]
 537              	.LM74:
 538 05b8 0030A0E3 		mov	r3, #0
 539 05bc 13304BE5 		strb	r3, [fp, #-19]
 540 05c0 120000EA 		b	.L50
 541              	.L46:
 542              	.LM75:
 543 05c4 10301BE5 		ldr	r3, [fp, #-16]
 544 05c8 2331A0E1 		mov	r3, r3, lsr #2
 545 05cc 10300BE5 		str	r3, [fp, #-16]
 546              	.LM76:
 547 05d0 10301BE5 		ldr	r3, [fp, #-16]
 548 05d4 053083E2 		add	r3, r3, #5
 549 05d8 10300BE5 		str	r3, [fp, #-16]
 550              	.LM77:
 551 05dc 10301BE5 		ldr	r3, [fp, #-16]
 552 05e0 FF0053E3 		cmp	r3, #255
 553 05e4 0100009A 		bls	.L51
 554              	.LM78:
 555 05e8 FF30A0E3 		mov	r3, #255
 556 05ec 10300BE5 		str	r3, [fp, #-16]
 557              	.L51:
 558              	.LM79:
 559 05f0 10301BE5 		ldr	r3, [fp, #-16]
 560 05f4 15304BE5 		strb	r3, [fp, #-21]
 561              	.LM80:
 562 05f8 10301BE5 		ldr	r3, [fp, #-16]
 563 05fc FF3003E2 		and	r3, r3, #255
 564 0600 0330E0E1 		mvn	r3, r3
 565 0604 14304BE5 		strb	r3, [fp, #-20]
 566              	.LM81:
 567 0608 0030A0E3 		mov	r3, #0
 568 060c 13304BE5 		strb	r3, [fp, #-19]
 569              	.L50:
 570              	.LM82:
 571 0610 0C389FE5 		ldr	r3, .L149+28
 572 0614 B030D3E1 		ldrh	r3, [r3, #0]
 573 0618 0338A0E1 		mov	r3, r3, asl #16
 574 061c 4328A0E1 		mov	r2, r3, asr #16
 575 0620 0A3BA0E3 		mov	r3, #10240
 576 0624 3B3083E2 		add	r3, r3, #59
 577 0628 030052E1 		cmp	r2, r3
 578 062c 1F0000CA 		bgt	.L38
 579              	.LM83:
 580 0630 E0379FE5 		ldr	r3, .L149+16
 581 0634 B010D3E1 		ldrh	r1, [r3, #0]
 582 0638 EC379FE5 		ldr	r3, .L149+36
 583 063c 912383E0 		umull	r2, r3, r1, r3
 584 0640 2322A0E1 		mov	r2, r3, lsr #4
 585 0644 0230A0E1 		mov	r3, r2
 586 0648 0331A0E1 		mov	r3, r3, asl #2
 587 064c 023083E0 		add	r3, r3, r2
 588 0650 0331A0E1 		mov	r3, r3, asl #2
 589 0654 013063E0 		rsb	r3, r3, r1
 590 0658 0338A0E1 		mov	r3, r3, asl #16
 591 065c 2338A0E1 		mov	r3, r3, lsr #16
 592 0660 090053E3 		cmp	r3, #9
 593 0664 1100008A 		bhi	.L38
 594 0668 0030A0E3 		mov	r3, #0
 595 066c 15304BE5 		strb	r3, [fp, #-21]
 596 0670 0030A0E3 		mov	r3, #0
 597 0674 14304BE5 		strb	r3, [fp, #-20]
 598 0678 0030A0E3 		mov	r3, #0
 599 067c 13304BE5 		strb	r3, [fp, #-19]
 600 0680 0A0000EA 		b	.L38
 601              	.L42:
 602              	.LBE2:
 603              	.LM84:
 604 0684 94379FE5 		ldr	r3, .L149+24
 605 0688 283093E5 		ldr	r3, [r3, #40]
 606 068c FF3003E2 		and	r3, r3, #255
 607 0690 030053E3 		cmp	r3, #3
 608 0694 0500000A 		beq	.L38
 609              	.LM85:
 610 0698 0030E0E3 		mvn	r3, #0
 611 069c 15304BE5 		strb	r3, [fp, #-21]
 612              	.LM86:
 613 06a0 5A30E0E3 		mvn	r3, #90
 614 06a4 14304BE5 		strb	r3, [fp, #-20]
 615              	.LM87:
 616 06a8 0030A0E3 		mov	r3, #0
 617 06ac 13304BE5 		strb	r3, [fp, #-19]
 618              	.L38:
 619              	.LM88:
 620 06b0 60379FE5 		ldr	r3, .L149+16
 621 06b4 B030D3E1 		ldrh	r3, [r3, #0]
 622 06b8 640053E3 		cmp	r3, #100
 623 06bc 0800008A 		bhi	.L57
 624 06c0 B2315BE1 		ldrh	r3, [fp, #-18]
 625 06c4 000053E3 		cmp	r3, #0
 626 06c8 0500000A 		beq	.L57
 627              	.LM89:
 628 06cc 0030A0E3 		mov	r3, #0
 629 06d0 13304BE5 		strb	r3, [fp, #-19]
 630 06d4 13305BE5 		ldrb	r3, [fp, #-19]
 631 06d8 14304BE5 		strb	r3, [fp, #-20]
 632 06dc 14305BE5 		ldrb	r3, [fp, #-20]
 633 06e0 15304BE5 		strb	r3, [fp, #-21]
 634              	.L57:
 635              	.LM90:
 636 06e4 2C379FE5 		ldr	r3, .L149+16
 637 06e8 B030D3E1 		ldrh	r3, [r3, #0]
 638 06ec 640053E3 		cmp	r3, #100
 639 06f0 BA01009A 		bls	.L60
 640 06f4 1C379FE5 		ldr	r3, .L149+16
 641 06f8 B030D3E1 		ldrh	r3, [r3, #0]
 642 06fc C70053E3 		cmp	r3, #199
 643 0700 B601008A 		bhi	.L60
 644 0704 B2315BE1 		ldrh	r3, [fp, #-18]
 645 0708 000053E3 		cmp	r3, #0
 646 070c B301000A 		beq	.L60
 647              	.LM91:
 648 0710 B2315BE1 		ldrh	r3, [fp, #-18]
 649 0714 023003E2 		and	r3, r3, #2
 650 0718 000053E3 		cmp	r3, #0
 651 071c 2700000A 		beq	.L64
 652              	.LM92:
 653 0720 F0369FE5 		ldr	r3, .L149+16
 654 0724 B030D3E1 		ldrh	r3, [r3, #0]
 655 0728 7C0053E3 		cmp	r3, #124
 656 072c 0600008A 		bhi	.L66
 657              	.LM93:
 658 0730 0030A0E3 		mov	r3, #0
 659 0734 15304BE5 		strb	r3, [fp, #-21]
 660              	.LM94:
 661 0738 0030A0E3 		mov	r3, #0
 662 073c 14304BE5 		strb	r3, [fp, #-20]
 663              	.LM95:
 664 0740 0030A0E3 		mov	r3, #0
 665 0744 13304BE5 		strb	r3, [fp, #-19]
 666 0748 A40100EA 		b	.L60
 667              	.L66:
 668              	.LM96:
 669 074c C4369FE5 		ldr	r3, .L149+16
 670 0750 B030D3E1 		ldrh	r3, [r3, #0]
 671 0754 950053E3 		cmp	r3, #149
 672 0758 0600008A 		bhi	.L69
 673              	.LM97:
 674 075c 0030E0E3 		mvn	r3, #0
 675 0760 15304BE5 		strb	r3, [fp, #-21]
 676              	.LM98:
 677 0764 0030A0E3 		mov	r3, #0
 678 0768 14304BE5 		strb	r3, [fp, #-20]
 679              	.LM99:
 680 076c 0030A0E3 		mov	r3, #0
 681 0770 13304BE5 		strb	r3, [fp, #-19]
 682 0774 990100EA 		b	.L60
 683              	.L69:
 684              	.LM100:
 685 0778 98369FE5 		ldr	r3, .L149+16
 686 077c B030D3E1 		ldrh	r3, [r3, #0]
 687 0780 AE0053E3 		cmp	r3, #174
 688 0784 0600008A 		bhi	.L71
 689              	.LM101:
 690 0788 0030A0E3 		mov	r3, #0
 691 078c 15304BE5 		strb	r3, [fp, #-21]
 692              	.LM102:
 693 0790 0030A0E3 		mov	r3, #0
 694 0794 14304BE5 		strb	r3, [fp, #-20]
 695              	.LM103:
 696 0798 0030A0E3 		mov	r3, #0
 697 079c 13304BE5 		strb	r3, [fp, #-19]
 698 07a0 8E0100EA 		b	.L60
 699              	.L71:
 700              	.LM104:
 701 07a4 0030E0E3 		mvn	r3, #0
 702 07a8 15304BE5 		strb	r3, [fp, #-21]
 703              	.LM105:
 704 07ac 0030A0E3 		mov	r3, #0
 705 07b0 14304BE5 		strb	r3, [fp, #-20]
 706              	.LM106:
 707 07b4 0030A0E3 		mov	r3, #0
 708 07b8 13304BE5 		strb	r3, [fp, #-19]
 709 07bc 870100EA 		b	.L60
 710              	.L64:
 711              	.LM107:
 712 07c0 B2315BE1 		ldrh	r3, [fp, #-18]
 713 07c4 043003E2 		and	r3, r3, #4
 714 07c8 000053E3 		cmp	r3, #0
 715 07cc 3100000A 		beq	.L73
 716              	.LM108:
 717 07d0 40369FE5 		ldr	r3, .L149+16
 718 07d4 B030D3E1 		ldrh	r3, [r3, #0]
 719 07d8 7C0053E3 		cmp	r3, #124
 720 07dc 0500008A 		bhi	.L75
 721              	.LM109:
 722 07e0 0030E0E3 		mvn	r3, #0
 723 07e4 15304BE5 		strb	r3, [fp, #-21]
 724              	.LM110:
 725 07e8 0030A0E3 		mov	r3, #0
 726 07ec 14304BE5 		strb	r3, [fp, #-20]
 727              	.LM111:
 728 07f0 0030A0E3 		mov	r3, #0
 729 07f4 13304BE5 		strb	r3, [fp, #-19]
 730              	.L75:
 731              	.LM112:
 732 07f8 18369FE5 		ldr	r3, .L149+16
 733 07fc B030D3E1 		ldrh	r3, [r3, #0]
 734 0800 8B0053E3 		cmp	r3, #139
 735 0804 0600008A 		bhi	.L77
 736              	.LM113:
 737 0808 0030A0E3 		mov	r3, #0
 738 080c 15304BE5 		strb	r3, [fp, #-21]
 739              	.LM114:
 740 0810 0030A0E3 		mov	r3, #0
 741 0814 14304BE5 		strb	r3, [fp, #-20]
 742              	.LM115:
 743 0818 0030A0E3 		mov	r3, #0
 744 081c 13304BE5 		strb	r3, [fp, #-19]
 745 0820 6E0100EA 		b	.L60
 746              	.L77:
 747              	.LM116:
 748 0824 EC359FE5 		ldr	r3, .L149+16
 749 0828 B030D3E1 		ldrh	r3, [r3, #0]
 750 082c AE0053E3 		cmp	r3, #174
 751 0830 0600008A 		bhi	.L80
 752              	.LM117:
 753 0834 0030E0E3 		mvn	r3, #0
 754 0838 15304BE5 		strb	r3, [fp, #-21]
 755              	.LM118:
 756 083c 0030A0E3 		mov	r3, #0
 757 0840 14304BE5 		strb	r3, [fp, #-20]
 758              	.LM119:
 759 0844 0030A0E3 		mov	r3, #0
 760 0848 13304BE5 		strb	r3, [fp, #-19]
 761 084c 630100EA 		b	.L60
 762              	.L80:
 763              	.LM120:
 764 0850 C0359FE5 		ldr	r3, .L149+16
 765 0854 B030D3E1 		ldrh	r3, [r3, #0]
 766 0858 BD0053E3 		cmp	r3, #189
 767 085c 0600008A 		bhi	.L82
 768              	.LM121:
 769 0860 0030A0E3 		mov	r3, #0
 770 0864 15304BE5 		strb	r3, [fp, #-21]
 771              	.LM122:
 772 0868 0030A0E3 		mov	r3, #0
 773 086c 14304BE5 		strb	r3, [fp, #-20]
 774              	.LM123:
 775 0870 0030A0E3 		mov	r3, #0
 776 0874 13304BE5 		strb	r3, [fp, #-19]
 777 0878 580100EA 		b	.L60
 778              	.L82:
 779              	.LM124:
 780 087c 0030E0E3 		mvn	r3, #0
 781 0880 15304BE5 		strb	r3, [fp, #-21]
 782              	.LM125:
 783 0884 0030A0E3 		mov	r3, #0
 784 0888 14304BE5 		strb	r3, [fp, #-20]
 785              	.LM126:
 786 088c 0030A0E3 		mov	r3, #0
 787 0890 13304BE5 		strb	r3, [fp, #-19]
 788 0894 510100EA 		b	.L60
 789              	.L73:
 790              	.LM127:
 791 0898 B2315BE1 		ldrh	r3, [fp, #-18]
 792 089c 083003E2 		and	r3, r3, #8
 793 08a0 000053E3 		cmp	r3, #0
 794 08a4 8200000A 		beq	.L84
 795              	.LM128:
 796 08a8 5C359FE5 		ldr	r3, .L149+4
 797 08ac 0030D3E5 		ldrb	r3, [r3, #0]	@ zero_extendqisi2
 798 08b0 040053E3 		cmp	r3, #4
 799 08b4 0900008A 		bhi	.L86
 800 08b8 58359FE5 		ldr	r3, .L149+16
 801 08bc B030D3E1 		ldrh	r3, [r3, #0]
 802 08c0 C30053E3 		cmp	r3, #195
 803 08c4 0500001A 		bne	.L86
 804              	.LM129:
 805 08c8 3C359FE5 		ldr	r3, .L149+4
 806 08cc 0030D3E5 		ldrb	r3, [r3, #0]	@ zero_extendqisi2
 807 08d0 013083E2 		add	r3, r3, #1
 808 08d4 FF3003E2 		and	r3, r3, #255
 809 08d8 2C259FE5 		ldr	r2, .L149+4
 810 08dc 0030C2E5 		strb	r3, [r2, #0]
 811              	.L86:
 812              	.LM130:
 813 08e0 30359FE5 		ldr	r3, .L149+16
 814 08e4 B030D3E1 		ldrh	r3, [r3, #0]
 815 08e8 680053E3 		cmp	r3, #104
 816 08ec 0600008A 		bhi	.L89
 817              	.LM131:
 818 08f0 0030A0E3 		mov	r3, #0
 819 08f4 15304BE5 		strb	r3, [fp, #-21]
 820              	.LM132:
 821 08f8 0030A0E3 		mov	r3, #0
 822 08fc 14304BE5 		strb	r3, [fp, #-20]
 823              	.LM133:
 824 0900 0030A0E3 		mov	r3, #0
 825 0904 13304BE5 		strb	r3, [fp, #-19]
 826 0908 340100EA 		b	.L60
 827              	.L89:
 828              	.LM134:
 829 090c 04359FE5 		ldr	r3, .L149+16
 830 0910 B030D3E1 		ldrh	r3, [r3, #0]
 831 0914 720053E3 		cmp	r3, #114
 832 0918 0600008A 		bhi	.L92
 833              	.LM135:
 834 091c 0030E0E3 		mvn	r3, #0
 835 0920 15304BE5 		strb	r3, [fp, #-21]
 836              	.LM136:
 837 0924 0030A0E3 		mov	r3, #0
 838 0928 14304BE5 		strb	r3, [fp, #-20]
 839              	.LM137:
 840 092c 0030A0E3 		mov	r3, #0
 841 0930 13304BE5 		strb	r3, [fp, #-19]
 842 0934 290100EA 		b	.L60
 843              	.L92:
 844              	.LM138:
 845 0938 D8349FE5 		ldr	r3, .L149+16
 846 093c B030D3E1 		ldrh	r3, [r3, #0]
 847 0940 7C0053E3 		cmp	r3, #124
 848 0944 0600008A 		bhi	.L94
 849              	.LM139:
 850 0948 0030A0E3 		mov	r3, #0
 851 094c 15304BE5 		strb	r3, [fp, #-21]
 852              	.LM140:
 853 0950 0030A0E3 		mov	r3, #0
 854 0954 14304BE5 		strb	r3, [fp, #-20]
 855              	.LM141:
 856 0958 0030A0E3 		mov	r3, #0
 857 095c 13304BE5 		strb	r3, [fp, #-19]
 858 0960 1E0100EA 		b	.L60
 859              	.L94:
 860              	.LM142:
 861 0964 AC349FE5 		ldr	r3, .L149+16
 862 0968 B030D3E1 		ldrh	r3, [r3, #0]
 863 096c 860053E3 		cmp	r3, #134
 864 0970 0600008A 		bhi	.L96
 865              	.LM143:
 866 0974 0030E0E3 		mvn	r3, #0
 867 0978 15304BE5 		strb	r3, [fp, #-21]
 868              	.LM144:
 869 097c 0030A0E3 		mov	r3, #0
 870 0980 14304BE5 		strb	r3, [fp, #-20]
 871              	.LM145:
 872 0984 0030A0E3 		mov	r3, #0
 873 0988 13304BE5 		strb	r3, [fp, #-19]
 874 098c 130100EA 		b	.L60
 875              	.L96:
 876              	.LM146:
 877 0990 80349FE5 		ldr	r3, .L149+16
 878 0994 B030D3E1 		ldrh	r3, [r3, #0]
 879 0998 900053E3 		cmp	r3, #144
 880 099c 0600008A 		bhi	.L98
 881              	.LM147:
 882 09a0 0030A0E3 		mov	r3, #0
 883 09a4 15304BE5 		strb	r3, [fp, #-21]
 884              	.LM148:
 885 09a8 0030A0E3 		mov	r3, #0
 886 09ac 14304BE5 		strb	r3, [fp, #-20]
 887              	.LM149:
 888 09b0 0030A0E3 		mov	r3, #0
 889 09b4 13304BE5 		strb	r3, [fp, #-19]
 890 09b8 080100EA 		b	.L60
 891              	.L98:
 892              	.LM150:
 893 09bc 54349FE5 		ldr	r3, .L149+16
 894 09c0 B030D3E1 		ldrh	r3, [r3, #0]
 895 09c4 9A0053E3 		cmp	r3, #154
 896 09c8 0600008A 		bhi	.L100
 897              	.LM151:
 898 09cc 0030E0E3 		mvn	r3, #0
 899 09d0 15304BE5 		strb	r3, [fp, #-21]
 900              	.LM152:
 901 09d4 0030A0E3 		mov	r3, #0
 902 09d8 14304BE5 		strb	r3, [fp, #-20]
 903              	.LM153:
 904 09dc 0030A0E3 		mov	r3, #0
 905 09e0 13304BE5 		strb	r3, [fp, #-19]
 906 09e4 FD0000EA 		b	.L60
 907              	.L100:
 908              	.LM154:
 909 09e8 28349FE5 		ldr	r3, .L149+16
 910 09ec B030D3E1 		ldrh	r3, [r3, #0]
 911 09f0 A40053E3 		cmp	r3, #164
 912 09f4 0600008A 		bhi	.L102
 913              	.LM155:
 914 09f8 0030A0E3 		mov	r3, #0
 915 09fc 15304BE5 		strb	r3, [fp, #-21]
 916              	.LM156:
 917 0a00 0030A0E3 		mov	r3, #0
 918 0a04 14304BE5 		strb	r3, [fp, #-20]
 919              	.LM157:
 920 0a08 0030A0E3 		mov	r3, #0
 921 0a0c 13304BE5 		strb	r3, [fp, #-19]
 922 0a10 F20000EA 		b	.L60
 923              	.L102:
 924              	.LM158:
 925 0a14 FC339FE5 		ldr	r3, .L149+16
 926 0a18 B030D3E1 		ldrh	r3, [r3, #0]
 927 0a1c AE0053E3 		cmp	r3, #174
 928 0a20 0600008A 		bhi	.L104
 929              	.LM159:
 930 0a24 0030E0E3 		mvn	r3, #0
 931 0a28 15304BE5 		strb	r3, [fp, #-21]
 932              	.LM160:
 933 0a2c 0030A0E3 		mov	r3, #0
 934 0a30 14304BE5 		strb	r3, [fp, #-20]
 935              	.LM161:
 936 0a34 0030A0E3 		mov	r3, #0
 937 0a38 13304BE5 		strb	r3, [fp, #-19]
 938 0a3c E70000EA 		b	.L60
 939              	.L104:
 940              	.LM162:
 941 0a40 D0339FE5 		ldr	r3, .L149+16
 942 0a44 B030D3E1 		ldrh	r3, [r3, #0]
 943 0a48 B80053E3 		cmp	r3, #184
 944 0a4c 0600008A 		bhi	.L106
 945              	.LM163:
 946 0a50 0030A0E3 		mov	r3, #0
 947 0a54 15304BE5 		strb	r3, [fp, #-21]
 948              	.LM164:
 949 0a58 0030A0E3 		mov	r3, #0
 950 0a5c 14304BE5 		strb	r3, [fp, #-20]
 951              	.LM165:
 952 0a60 0030A0E3 		mov	r3, #0
 953 0a64 13304BE5 		strb	r3, [fp, #-19]
 954 0a68 DC0000EA 		b	.L60
 955              	.L106:
 956              	.LM166:
 957 0a6c A4339FE5 		ldr	r3, .L149+16
 958 0a70 B030D3E1 		ldrh	r3, [r3, #0]
 959 0a74 C20053E3 		cmp	r3, #194
 960 0a78 0600008A 		bhi	.L108
 961              	.LM167:
 962 0a7c 0030E0E3 		mvn	r3, #0
 963 0a80 15304BE5 		strb	r3, [fp, #-21]
 964              	.LM168:
 965 0a84 0030A0E3 		mov	r3, #0
 966 0a88 14304BE5 		strb	r3, [fp, #-20]
 967              	.LM169:
 968 0a8c 0030A0E3 		mov	r3, #0
 969 0a90 13304BE5 		strb	r3, [fp, #-19]
 970 0a94 D10000EA 		b	.L60
 971              	.L108:
 972              	.LM170:
 973 0a98 0030A0E3 		mov	r3, #0
 974 0a9c 15304BE5 		strb	r3, [fp, #-21]
 975              	.LM171:
 976 0aa0 0030A0E3 		mov	r3, #0
 977 0aa4 14304BE5 		strb	r3, [fp, #-20]
 978              	.LM172:
 979 0aa8 0030A0E3 		mov	r3, #0
 980 0aac 13304BE5 		strb	r3, [fp, #-19]
 981 0ab0 CA0000EA 		b	.L60
 982              	.L84:
 983              	.LM173:
 984 0ab4 B2315BE1 		ldrh	r3, [fp, #-18]
 985 0ab8 103003E2 		and	r3, r3, #16
 986 0abc 000053E3 		cmp	r3, #0
 987 0ac0 6C00000A 		beq	.L110
 988              	.LM174:
 989 0ac4 44339FE5 		ldr	r3, .L149+8
 990 0ac8 0030D3E5 		ldrb	r3, [r3, #0]	@ zero_extendqisi2
 991 0acc 040053E3 		cmp	r3, #4
 992 0ad0 0900008A 		bhi	.L112
 993 0ad4 3C339FE5 		ldr	r3, .L149+16
 994 0ad8 B030D3E1 		ldrh	r3, [r3, #0]
 995 0adc C30053E3 		cmp	r3, #195
 996 0ae0 0500001A 		bne	.L112
 997              	.LM175:
 998 0ae4 24339FE5 		ldr	r3, .L149+8
 999 0ae8 0030D3E5 		ldrb	r3, [r3, #0]	@ zero_extendqisi2
 1000 0aec 013083E2 		add	r3, r3, #1
 1001 0af0 FF3003E2 		and	r3, r3, #255
 1002 0af4 14239FE5 		ldr	r2, .L149+8
 1003 0af8 0030C2E5 		strb	r3, [r2, #0]
 1004              	.L112:
 1005              	.LM176:
 1006 0afc 14339FE5 		ldr	r3, .L149+16
 1007 0b00 B030D3E1 		ldrh	r3, [r3, #0]
 1008 0b04 680053E3 		cmp	r3, #104
 1009 0b08 0600008A 		bhi	.L115
 1010              	.LM177:
 1011 0b0c 0030A0E3 		mov	r3, #0
 1012 0b10 15304BE5 		strb	r3, [fp, #-21]
 1013              	.LM178:
 1014 0b14 0030A0E3 		mov	r3, #0
 1015 0b18 14304BE5 		strb	r3, [fp, #-20]
 1016              	.LM179:
 1017 0b1c 0030A0E3 		mov	r3, #0
 1018 0b20 13304BE5 		strb	r3, [fp, #-19]
 1019 0b24 AD0000EA 		b	.L60
 1020              	.L115:
 1021              	.LM180:
 1022 0b28 E8329FE5 		ldr	r3, .L149+16
 1023 0b2c B030D3E1 		ldrh	r3, [r3, #0]
 1024 0b30 720053E3 		cmp	r3, #114
 1025 0b34 0600008A 		bhi	.L118
 1026              	.LM181:
 1027 0b38 0030A0E3 		mov	r3, #0
 1028 0b3c 15304BE5 		strb	r3, [fp, #-21]
 1029              	.LM182:
 1030 0b40 0030A0E3 		mov	r3, #0
 1031 0b44 14304BE5 		strb	r3, [fp, #-20]
 1032              	.LM183:
 1033 0b48 0030E0E3 		mvn	r3, #0
 1034 0b4c 13304BE5 		strb	r3, [fp, #-19]
 1035 0b50 A20000EA 		b	.L60
 1036              	.L118:
 1037              	.LM184:
 1038 0b54 BC329FE5 		ldr	r3, .L149+16
 1039 0b58 B030D3E1 		ldrh	r3, [r3, #0]
 1040 0b5c 7C0053E3 		cmp	r3, #124
 1041 0b60 0600008A 		bhi	.L120
 1042              	.LM185:
 1043 0b64 0030A0E3 		mov	r3, #0
 1044 0b68 15304BE5 		strb	r3, [fp, #-21]
 1045              	.LM186:
 1046 0b6c 0030A0E3 		mov	r3, #0
 1047 0b70 14304BE5 		strb	r3, [fp, #-20]
 1048              	.LM187:
 1049 0b74 0030A0E3 		mov	r3, #0
 1050 0b78 13304BE5 		strb	r3, [fp, #-19]
 1051 0b7c 970000EA 		b	.L60
 1052              	.L120:
 1053              	.LM188:
 1054 0b80 90329FE5 		ldr	r3, .L149+16
 1055 0b84 B030D3E1 		ldrh	r3, [r3, #0]
 1056 0b88 860053E3 		cmp	r3, #134
 1057 0b8c 0600008A 		bhi	.L122
 1058              	.LM189:
 1059 0b90 0030A0E3 		mov	r3, #0
 1060 0b94 15304BE5 		strb	r3, [fp, #-21]
 1061              	.LM190:
 1062 0b98 0030A0E3 		mov	r3, #0
 1063 0b9c 14304BE5 		strb	r3, [fp, #-20]
 1064              	.LM191:
 1065 0ba0 0030E0E3 		mvn	r3, #0
 1066 0ba4 13304BE5 		strb	r3, [fp, #-19]
 1067 0ba8 8C0000EA 		b	.L60
 1068              	.L122:
 1069              	.LM192:
 1070 0bac 64329FE5 		ldr	r3, .L149+16
 1071 0bb0 B030D3E1 		ldrh	r3, [r3, #0]
 1072 0bb4 900053E3 		cmp	r3, #144
 1073 0bb8 0600008A 		bhi	.L124
 1074              	.LM193:
 1075 0bbc 0030A0E3 		mov	r3, #0
 1076 0bc0 15304BE5 		strb	r3, [fp, #-21]
 1077              	.LM194:
 1078 0bc4 0030A0E3 		mov	r3, #0
 1079 0bc8 14304BE5 		strb	r3, [fp, #-20]
 1080              	.LM195:
 1081 0bcc 0030A0E3 		mov	r3, #0
 1082 0bd0 13304BE5 		strb	r3, [fp, #-19]
 1083 0bd4 810000EA 		b	.L60
 1084              	.L124:
 1085              	.LM196:
 1086 0bd8 38329FE5 		ldr	r3, .L149+16
 1087 0bdc B030D3E1 		ldrh	r3, [r3, #0]
 1088 0be0 9A0053E3 		cmp	r3, #154
 1089 0be4 0600008A 		bhi	.L126
 1090              	.LM197:
 1091 0be8 0030A0E3 		mov	r3, #0
 1092 0bec 15304BE5 		strb	r3, [fp, #-21]
 1093              	.LM198:
 1094 0bf0 0030A0E3 		mov	r3, #0
 1095 0bf4 14304BE5 		strb	r3, [fp, #-20]
 1096              	.LM199:
 1097 0bf8 0030E0E3 		mvn	r3, #0
 1098 0bfc 13304BE5 		strb	r3, [fp, #-19]
 1099 0c00 760000EA 		b	.L60
 1100              	.L126:
 1101              	.LM200:
 1102 0c04 0C329FE5 		ldr	r3, .L149+16
 1103 0c08 B030D3E1 		ldrh	r3, [r3, #0]
 1104 0c0c A40053E3 		cmp	r3, #164
 1105 0c10 0600008A 		bhi	.L128
 1106              	.LM201:
 1107 0c14 0030A0E3 		mov	r3, #0
 1108 0c18 15304BE5 		strb	r3, [fp, #-21]
 1109              	.LM202:
 1110 0c1c 0030A0E3 		mov	r3, #0
 1111 0c20 14304BE5 		strb	r3, [fp, #-20]
 1112              	.LM203:
 1113 0c24 0030A0E3 		mov	r3, #0
 1114 0c28 13304BE5 		strb	r3, [fp, #-19]
 1115 0c2c 6B0000EA 		b	.L60
 1116              	.L128:
 1117              	.LM204:
 1118 0c30 E0319FE5 		ldr	r3, .L149+16
 1119 0c34 B030D3E1 		ldrh	r3, [r3, #0]
 1120 0c38 AE0053E3 		cmp	r3, #174
 1121 0c3c 0600008A 		bhi	.L130
 1122              	.LM205:
 1123 0c40 0030A0E3 		mov	r3, #0
 1124 0c44 15304BE5 		strb	r3, [fp, #-21]
 1125              	.LM206:
 1126 0c48 0030A0E3 		mov	r3, #0
 1127 0c4c 14304BE5 		strb	r3, [fp, #-20]
 1128              	.LM207:
 1129 0c50 0030E0E3 		mvn	r3, #0
 1130 0c54 13304BE5 		strb	r3, [fp, #-19]
 1131 0c58 600000EA 		b	.L60
 1132              	.L130:
 1133              	.LM208:
 1134 0c5c 0030A0E3 		mov	r3, #0
 1135 0c60 15304BE5 		strb	r3, [fp, #-21]
 1136              	.LM209:
 1137 0c64 0030A0E3 		mov	r3, #0
 1138 0c68 14304BE5 		strb	r3, [fp, #-20]
 1139              	.LM210:
 1140 0c6c 0030A0E3 		mov	r3, #0
 1141 0c70 13304BE5 		strb	r3, [fp, #-19]
 1142 0c74 590000EA 		b	.L60
 1143              	.L110:
 1144              	.LM211:
 1145 0c78 B2315BE1 		ldrh	r3, [fp, #-18]
 1146 0c7c 203003E2 		and	r3, r3, #32
 1147 0c80 000053E3 		cmp	r3, #0
 1148 0c84 5500000A 		beq	.L60
 1149              	.LM212:
 1150 0c88 84319FE5 		ldr	r3, .L149+12
 1151 0c8c 0030D3E5 		ldrb	r3, [r3, #0]	@ zero_extendqisi2
 1152 0c90 040053E3 		cmp	r3, #4
 1153 0c94 0900008A 		bhi	.L133
 1154 0c98 78319FE5 		ldr	r3, .L149+16
 1155 0c9c B030D3E1 		ldrh	r3, [r3, #0]
 1156 0ca0 C30053E3 		cmp	r3, #195
 1157 0ca4 0500001A 		bne	.L133
 1158              	.LM213:
 1159 0ca8 64319FE5 		ldr	r3, .L149+12
 1160 0cac 0030D3E5 		ldrb	r3, [r3, #0]	@ zero_extendqisi2
 1161 0cb0 013083E2 		add	r3, r3, #1
 1162 0cb4 FF3003E2 		and	r3, r3, #255
 1163 0cb8 54219FE5 		ldr	r2, .L149+12
 1164 0cbc 0030C2E5 		strb	r3, [r2, #0]
 1165              	.L133:
 1166              	.LM214:
 1167 0cc0 50319FE5 		ldr	r3, .L149+16
 1168 0cc4 B030D3E1 		ldrh	r3, [r3, #0]
 1169 0cc8 680053E3 		cmp	r3, #104
 1170 0ccc 0600008A 		bhi	.L136
 1171              	.LM215:
 1172 0cd0 0030A0E3 		mov	r3, #0
 1173 0cd4 15304BE5 		strb	r3, [fp, #-21]
 1174              	.LM216:
 1175 0cd8 0030A0E3 		mov	r3, #0
 1176 0cdc 14304BE5 		strb	r3, [fp, #-20]
 1177              	.LM217:
 1178 0ce0 0030A0E3 		mov	r3, #0
 1179 0ce4 13304BE5 		strb	r3, [fp, #-19]
 1180 0ce8 3C0000EA 		b	.L60
 1181              	.L136:
 1182              	.LM218:
 1183 0cec 24319FE5 		ldr	r3, .L149+16
 1184 0cf0 B030D3E1 		ldrh	r3, [r3, #0]
 1185 0cf4 720053E3 		cmp	r3, #114
 1186 0cf8 0600008A 		bhi	.L138
 1187              	.LM219:
 1188 0cfc 0030A0E3 		mov	r3, #0
 1189 0d00 15304BE5 		strb	r3, [fp, #-21]
 1190              	.LM220:
 1191 0d04 0030A0E3 		mov	r3, #0
 1192 0d08 14304BE5 		strb	r3, [fp, #-20]
 1193              	.LM221:
 1194 0d0c 0030E0E3 		mvn	r3, #0
 1195 0d10 13304BE5 		strb	r3, [fp, #-19]
 1196 0d14 310000EA 		b	.L60
 1197              	.L138:
 1198              	.LM222:
 1199 0d18 F8309FE5 		ldr	r3, .L149+16
 1200 0d1c B030D3E1 		ldrh	r3, [r3, #0]
 1201 0d20 7C0053E3 		cmp	r3, #124
 1202 0d24 0600008A 		bhi	.L140
 1203              	.LM223:
 1204 0d28 0030A0E3 		mov	r3, #0
 1205 0d2c 15304BE5 		strb	r3, [fp, #-21]
 1206              	.LM224:
 1207 0d30 0030A0E3 		mov	r3, #0
 1208 0d34 14304BE5 		strb	r3, [fp, #-20]
 1209              	.LM225:
 1210 0d38 0030A0E3 		mov	r3, #0
 1211 0d3c 13304BE5 		strb	r3, [fp, #-19]
 1212 0d40 260000EA 		b	.L60
 1213              	.L140:
 1214              	.LM226:
 1215 0d44 CC309FE5 		ldr	r3, .L149+16
 1216 0d48 B030D3E1 		ldrh	r3, [r3, #0]
 1217 0d4c 860053E3 		cmp	r3, #134
 1218 0d50 0600008A 		bhi	.L142
 1219              	.LM227:
 1220 0d54 0030A0E3 		mov	r3, #0
 1221 0d58 15304BE5 		strb	r3, [fp, #-21]
 1222              	.LM228:
 1223 0d5c 0030A0E3 		mov	r3, #0
 1224 0d60 14304BE5 		strb	r3, [fp, #-20]
 1225              	.LM229:
 1226 0d64 0030E0E3 		mvn	r3, #0
 1227 0d68 13304BE5 		strb	r3, [fp, #-19]
 1228 0d6c 1B0000EA 		b	.L60
 1229              	.L142:
 1230              	.LM230:
 1231 0d70 A0309FE5 		ldr	r3, .L149+16
 1232 0d74 B030D3E1 		ldrh	r3, [r3, #0]
 1233 0d78 900053E3 		cmp	r3, #144
 1234 0d7c 0600008A 		bhi	.L144
 1235              	.LM231:
 1236 0d80 0030A0E3 		mov	r3, #0
 1237 0d84 15304BE5 		strb	r3, [fp, #-21]
 1238              	.LM232:
 1239 0d88 0030A0E3 		mov	r3, #0
 1240 0d8c 14304BE5 		strb	r3, [fp, #-20]
 1241              	.LM233:
 1242 0d90 0030A0E3 		mov	r3, #0
 1243 0d94 13304BE5 		strb	r3, [fp, #-19]
 1244 0d98 100000EA 		b	.L60
 1245              	.L144:
 1246              	.LM234:
 1247 0d9c 74309FE5 		ldr	r3, .L149+16
 1248 0da0 B030D3E1 		ldrh	r3, [r3, #0]
 1249 0da4 9A0053E3 		cmp	r3, #154
 1250 0da8 0600008A 		bhi	.L146
 1251              	.LM235:
 1252 0dac 0030A0E3 		mov	r3, #0
 1253 0db0 15304BE5 		strb	r3, [fp, #-21]
 1254              	.LM236:
 1255 0db4 0030A0E3 		mov	r3, #0
 1256 0db8 14304BE5 		strb	r3, [fp, #-20]
 1257              	.LM237:
 1258 0dbc 0030E0E3 		mvn	r3, #0
 1259 0dc0 13304BE5 		strb	r3, [fp, #-19]
 1260 0dc4 050000EA 		b	.L60
 1261              	.L146:
 1262              	.LM238:
 1263 0dc8 0030A0E3 		mov	r3, #0
 1264 0dcc 15304BE5 		strb	r3, [fp, #-21]
 1265              	.LM239:
 1266 0dd0 0030A0E3 		mov	r3, #0
 1267 0dd4 14304BE5 		strb	r3, [fp, #-20]
 1268              	.LM240:
 1269 0dd8 0030A0E3 		mov	r3, #0
 1270 0ddc 13304BE5 		strb	r3, [fp, #-19]
 1271              	.L60:
 1272              	.LM241:
 1273 0de0 15305BE5 		ldrb	r3, [fp, #-21]	@ zero_extendqisi2
 1274 0de4 14205BE5 		ldrb	r2, [fp, #-20]	@ zero_extendqisi2
 1275 0de8 13C05BE5 		ldrb	ip, [fp, #-19]	@ zero_extendqisi2
 1276 0dec 0300A0E1 		mov	r0, r3
 1277 0df0 0210A0E1 		mov	r1, r2
 1278 0df4 0C20A0E1 		mov	r2, ip
 1279 0df8 FEFFFFEB 		bl	I2C1_setRGBLed
 1280              	.LM242:
 1281 0dfc 0CD04BE2 		sub	sp, fp, #12
 1282 0e00 00689DE8 		ldmfd	sp, {fp, sp, lr}
 1283 0e04 1EFF2FE1 		bx	lr
 1284              	.L150:
 1285              		.align	2
 1286              	.L149:
 1287 0e08 00000000 		.word	LL_1khz_attitude_data
 1288 0e0c 0D000000 		.word	ceCnt.1589
 1289 0e10 0E000000 		.word	mincCnt.1588
 1290 0e14 0F000000 		.word	mfsCnt.1587
 1291 0e18 10000000 		.word	cnt.1586
 1292 0e1c 00000000 		.word	SYSTEM_initialized
 1293 0e20 00000000 		.word	GPS_Data
 1294 0e24 00000000 		.word	HL_Status
 1295 0e28 ABAAAAAA 		.word	-1431655765
 1296 0e2c CDCCCCCC 		.word	-858993459
 1297              	.LFE3:
 1299              		.align	2
 1300              		.global	I2C1_setRGBLed
 1302              	I2C1_setRGBLed:
 1303              	.LFB4:
 1304              	.LM243:
 1305              		@ Function supports interworking.
 1306              		@ args = 0, pretend = 0, frame = 16
 1307              		@ frame_needed = 1, uses_anonymous_args = 0
 1308 0e30 0DC0A0E1 		mov	ip, sp
 1309              	.LCFI8:
 1310 0e34 00D82DE9 		stmfd	sp!, {fp, ip, lr, pc}
 1311              	.LCFI9:
 1312 0e38 04B04CE2 		sub	fp, ip, #4
 1313              	.LCFI10:
 1314 0e3c 10D04DE2 		sub	sp, sp, #16
 1315              	.LCFI11:
 1316 0e40 0030A0E1 		mov	r3, r0
 1317 0e44 10304BE5 		strb	r3, [fp, #-16]
 1318 0e48 0130A0E1 		mov	r3, r1
 1319 0e4c 14304BE5 		strb	r3, [fp, #-20]
 1320 0e50 0230A0E1 		mov	r3, r2
 1321 0e54 18304BE5 		strb	r3, [fp, #-24]
 1322              	.LM244:
 1323 0e58 C4309FE5 		ldr	r3, .L157
 1324 0e5c 003093E5 		ldr	r3, [r3, #0]
 1325 0e60 010053E3 		cmp	r3, #1
 1326 0e64 0300000A 		beq	.L152
 1327 0e68 B4309FE5 		ldr	r3, .L157
 1328 0e6c 003093E5 		ldr	r3, [r3, #0]
 1329 0e70 040053E3 		cmp	r3, #4
 1330 0e74 0200001A 		bne	.L154
 1331              	.L152:
 1332              	.LM245:
 1333 0e78 0530A0E3 		mov	r3, #5
 1334 0e7c 1C300BE5 		str	r3, [fp, #-28]
 1335 0e80 220000EA 		b	.L155
 1336              	.L154:
 1337              	.LM246:
 1338 0e84 9C209FE5 		ldr	r2, .L157+4
 1339 0e88 0030A0E3 		mov	r3, #0
 1340 0e8c 003082E5 		str	r3, [r2, #0]
 1341              	.LM247:
 1342 0e90 94209FE5 		ldr	r2, .L157+8
 1343 0e94 0530A0E3 		mov	r3, #5
 1344 0e98 003082E5 		str	r3, [r2, #0]
 1345              	.LM248:
 1346 0e9c 8C209FE5 		ldr	r2, .L157+12
 1347 0ea0 3030A0E3 		mov	r3, #48
 1348 0ea4 0030C2E5 		strb	r3, [r2, #0]
 1349              	.LM249:
 1350 0ea8 80209FE5 		ldr	r2, .L157+12
 1351 0eac 10305BE5 		ldrb	r3, [fp, #-16]
 1352 0eb0 0130C2E5 		strb	r3, [r2, #1]
 1353              	.LM250:
 1354 0eb4 74209FE5 		ldr	r2, .L157+12
 1355 0eb8 14305BE5 		ldrb	r3, [fp, #-20]
 1356 0ebc 0230C2E5 		strb	r3, [r2, #2]
 1357              	.LM251:
 1358 0ec0 68209FE5 		ldr	r2, .L157+12
 1359 0ec4 18305BE5 		ldrb	r3, [fp, #-24]
 1360 0ec8 0330C2E5 		strb	r3, [r2, #3]
 1361              	.LM252:
 1362 0ecc 10205BE5 		ldrb	r2, [fp, #-16]
 1363 0ed0 14305BE5 		ldrb	r3, [fp, #-20]
 1364 0ed4 033082E0 		add	r3, r2, r3
 1365 0ed8 FF2003E2 		and	r2, r3, #255
 1366 0edc 18305BE5 		ldrb	r3, [fp, #-24]
 1367 0ee0 033082E0 		add	r3, r2, r3
 1368 0ee4 FF3003E2 		and	r3, r3, #255
 1369 0ee8 0330E0E1 		mvn	r3, r3
 1370 0eec FF3003E2 		and	r3, r3, #255
 1371 0ef0 38209FE5 		ldr	r2, .L157+12
 1372 0ef4 0430C2E5 		strb	r3, [r2, #4]
 1373              	.LM253:
 1374 0ef8 24209FE5 		ldr	r2, .L157
 1375 0efc 0130A0E3 		mov	r3, #1
 1376 0f00 003082E5 		str	r3, [r2, #0]
 1377              	.LM254:
 1378 0f04 FEFFFFEB 		bl	I2C1Engine
 1379              	.LM255:
 1380 0f08 0030A0E3 		mov	r3, #0
 1381 0f0c 1C300BE5 		str	r3, [fp, #-28]
 1382              	.L155:
 1383 0f10 1C301BE5 		ldr	r3, [fp, #-28]
 1384              	.LM256:
 1385 0f14 0300A0E1 		mov	r0, r3
 1386 0f18 0CD04BE2 		sub	sp, fp, #12
 1387 0f1c 00689DE8 		ldmfd	sp, {fp, sp, lr}
 1388 0f20 1EFF2FE1 		bx	lr
 1389              	.L158:
 1390              		.align	2
 1391              	.L157:
 1392 0f24 00000000 		.word	I2C1MasterState
 1393 0f28 00000000 		.word	WrIndex1
 1394 0f2c 00000000 		.word	I2C1WriteLength
 1395 0f30 00000000 		.word	I2C1MasterBuffer
 1396              	.LFE4:
 1398              		.align	2
 1399              		.global	I2C1Init
 1401              	I2C1Init:
 1402              	.LFB5:
 1403              	.LM257:
 1404              		@ Function supports interworking.
 1405              		@ args = 0, pretend = 0, frame = 0
 1406              		@ frame_needed = 1, uses_anonymous_args = 0
 1407 0f34 0DC0A0E1 		mov	ip, sp
 1408              	.LCFI12:
 1409 0f38 00D82DE9 		stmfd	sp!, {fp, ip, lr, pc}
 1410              	.LCFI13:
 1411 0f3c 04B04CE2 		sub	fp, ip, #4
 1412              	.LCFI14:
 1413              	.LM258:
 1414 0f40 0E32A0E3 		mov	r3, #-536870912
 1415 0f44 173983E2 		add	r3, r3, #376832
 1416 0f48 183083E2 		add	r3, r3, #24
 1417 0f4c 6C20A0E3 		mov	r2, #108
 1418 0f50 002083E5 		str	r2, [r3, #0]
 1419              	.LM259:
 1420 0f54 0E32A0E3 		mov	r3, #-536870912
 1421 0f58 173983E2 		add	r3, r3, #376832
 1422 0f5c 143083E2 		add	r3, r3, #20
 1423 0f60 022CA0E3 		mov	r2, #512
 1424 0f64 002083E5 		str	r2, [r3, #0]
 1425              	.LM260:
 1426 0f68 0E32A0E3 		mov	r3, #-536870912
 1427 0f6c 173983E2 		add	r3, r3, #376832
 1428 0f70 103083E2 		add	r3, r3, #16
 1429 0f74 022CA0E3 		mov	r2, #512
 1430 0f78 002083E5 		str	r2, [r3, #0]
 1431              	.LM261:
 1432 0f7c 1300A0E3 		mov	r0, #19
 1433 0f80 1C109FE5 		ldr	r1, .L161
 1434 0f84 FEFFFFEB 		bl	install_irq
 1435              	.LM262:
 1436 0f88 0E32A0E3 		mov	r3, #-536870912
 1437 0f8c 173983E2 		add	r3, r3, #376832
 1438 0f90 4020A0E3 		mov	r2, #64
 1439 0f94 002083E5 		str	r2, [r3, #0]
 1440              	.LM263:
 1441 0f98 0CD04BE2 		sub	sp, fp, #12
 1442 0f9c 00689DE8 		ldmfd	sp, {fp, sp, lr}
 1443 0fa0 1EFF2FE1 		bx	lr
 1444              	.L162:
 1445              		.align	2
 1446              	.L161:
 1447 0fa4 00000000 		.word	I2C1MasterHandler
 1448              	.LFE5:
 1450              		.align	2
 1451              		.global	I2C1Engine
 1453              	I2C1Engine:
 1454              	.LFB6:
 1455              	.LM264:
 1456              		@ Function supports interworking.
 1457              		@ args = 0, pretend = 0, frame = 0
 1458              		@ frame_needed = 1, uses_anonymous_args = 0
 1459 0fa8 0DC0A0E1 		mov	ip, sp
 1460              	.LCFI15:
 1461 0fac 00D82DE9 		stmfd	sp!, {fp, ip, lr, pc}
 1462              	.LCFI16:
 1463 0fb0 04B04CE2 		sub	fp, ip, #4
 1464              	.LCFI17:
 1465              	.LM265:
 1466 0fb4 0E32A0E3 		mov	r3, #-536870912
 1467 0fb8 173983E2 		add	r3, r3, #376832
 1468 0fbc 1020A0E3 		mov	r2, #16
 1469 0fc0 002083E5 		str	r2, [r3, #0]
 1470              	.LM266:
 1471 0fc4 0E32A0E3 		mov	r3, #-536870912
 1472 0fc8 173983E2 		add	r3, r3, #376832
 1473 0fcc 183083E2 		add	r3, r3, #24
 1474 0fd0 0820A0E3 		mov	r2, #8
 1475 0fd4 002083E5 		str	r2, [r3, #0]
 1476              	.LM267:
 1477 0fd8 34209FE5 		ldr	r2, .L165
 1478 0fdc 0030A0E3 		mov	r3, #0
 1479 0fe0 003082E5 		str	r3, [r2, #0]
 1480              	.LM268:
 1481 0fe4 2C209FE5 		ldr	r2, .L165+4
 1482 0fe8 0030A0E3 		mov	r3, #0
 1483 0fec 003082E5 		str	r3, [r2, #0]
 1484              	.LM269:
 1485 0ff0 0E32A0E3 		mov	r3, #-536870912
 1486 0ff4 173983E2 		add	r3, r3, #376832
 1487 0ff8 2020A0E3 		mov	r2, #32
 1488 0ffc 002083E5 		str	r2, [r3, #0]
 1489              	.LM270:
 1490 1000 0130A0E3 		mov	r3, #1
 1491              	.LM271:
 1492 1004 0300A0E1 		mov	r0, r3
 1493 1008 0CD04BE2 		sub	sp, fp, #12
 1494 100c 00689DE8 		ldmfd	sp, {fp, sp, lr}
 1495 1010 1EFF2FE1 		bx	lr
 1496              	.L166:
 1497              		.align	2
 1498              	.L165:
 1499 1014 00000000 		.word	I2C1MasterState
 1500 1018 00000000 		.word	WrIndex1
 1501              	.LFE6:
 1503              		.align	2
 1504              		.global	I2C1State
 1506              	I2C1State:
 1507              	.LFB7:
 1508              	.LM272:
 1509              		@ Function supports interworking.
 1510              		@ args = 0, pretend = 0, frame = 0
 1511              		@ frame_needed = 1, uses_anonymous_args = 0
 1512 101c 0DC0A0E1 		mov	ip, sp
 1513              	.LCFI18:
 1514 1020 00D82DE9 		stmfd	sp!, {fp, ip, lr, pc}
 1515              	.LCFI19:
 1516 1024 04B04CE2 		sub	fp, ip, #4
 1517              	.LCFI20:
 1518              	.LM273:
 1519 1028 14309FE5 		ldr	r3, .L169
 1520 102c 003093E5 		ldr	r3, [r3, #0]
 1521 1030 FF3003E2 		and	r3, r3, #255
 1522              	.LM274:
 1523 1034 0300A0E1 		mov	r0, r3
 1524 1038 0CD04BE2 		sub	sp, fp, #12
 1525 103c 00689DE8 		ldmfd	sp, {fp, sp, lr}
 1526 1040 1EFF2FE1 		bx	lr
 1527              	.L170:
 1528              		.align	2
 1529              	.L169:
 1530 1044 00000000 		.word	I2C1MasterState
 1531              	.LFE7:
 1533              		.comm	GPS_timeout,4,4
 1534              		.comm	SYSTEM_initialized,1,1
 1535              		.comm	I2C1MasterBuffer,32,1
 1536              		.comm	I2C1WriteLength,4,4
 1703              	.Letext0: