   1              		.file	"pelican_ptu.c"
   9              	.Ltext0:
  10              		.global	PTU_cam_angle_roll_offset
  11              		.bss
  12              		.align	2
  15              	PTU_cam_angle_roll_offset:
  16 0000 00000000 		.space	4
  17              		.global	PTU_cam_angle_pitch_offset
  18              		.align	2
  21              	PTU_cam_angle_pitch_offset:
  22 0004 00000000 		.space	4
  23              		.global	PTU_enable_plain_ch7_to_servo
  26              	PTU_enable_plain_ch7_to_servo:
  27 0008 00       		.space	1
  28              		.text
  29              		.align	2
  30              		.global	PTU_init
  32              	PTU_init:
  33              	.LFB2:
  34              	.LM1:
  35              		@ Function supports interworking.
  36              		@ args = 0, pretend = 0, frame = 0
  37              		@ frame_needed = 1, uses_anonymous_args = 0
  38 0000 0DC0A0E1 		mov	ip, sp
  39              	.LCFI0:
  40 0004 00D82DE9 		stmfd	sp!, {fp, ip, lr, pc}
  41              	.LCFI1:
  42 0008 04B04CE2 		sub	fp, ip, #4
  43              	.LCFI2:
  44              	.LM2:
  45 000c 0E22A0E3 		mov	r2, #-536870912
  46 0010 0B2982E2 		add	r2, r2, #180224
  47 0014 0E32A0E3 		mov	r3, #-536870912
  48 0018 0B3983E2 		add	r3, r3, #180224
  49 001c 003093E5 		ldr	r3, [r3, #0]
  50 0020 023983E3 		orr	r3, r3, #32768
  51 0024 003082E5 		str	r3, [r2, #0]
  52              	.LM3:
  53 0028 0E22A0E3 		mov	r2, #-536870912
  54 002c 0B2982E2 		add	r2, r2, #180224
  55 0030 0E32A0E3 		mov	r3, #-536870912
  56 0034 0B3983E2 		add	r3, r3, #180224
  57 0038 003093E5 		ldr	r3, [r3, #0]
  58 003c 0139C3E3 		bic	r3, r3, #16384
  59 0040 003082E5 		str	r3, [r2, #0]
  60              	.LM4:
  61 0044 CC209FE5 		ldr	r2, .L6
  62 0048 0F3AA0E3 		mov	r3, #61440
  63 004c 3C3083E2 		add	r3, r3, #60
  64 0050 043082E5 		str	r3, [r2, #4]
  65              	.LM5:
  66 0054 BC209FE5 		ldr	r2, .L6
  67 0058 D63CA0E3 		mov	r3, #54784
  68 005c 453083E2 		add	r3, r3, #69
  69 0060 0C3082E5 		str	r3, [r2, #12]
  70              	.LM6:
  71 0064 AC209FE5 		ldr	r2, .L6
  72 0068 B33CA0E3 		mov	r3, #45824
  73 006c B03083E2 		add	r3, r3, #176
  74 0070 103082E5 		str	r3, [r2, #16]
  75              	.LM7:
  76 0074 9C209FE5 		ldr	r2, .L6
  77 0078 7D3BA0E3 		mov	r3, #128000
  78 007c 143082E5 		str	r3, [r2, #20]
  79              	.LM8:
  80 0080 94309FE5 		ldr	r3, .L6+4
  81 0084 0030D3E5 		ldrb	r3, [r3, #0]	@ zero_extendqisi2
  82 0088 020053E3 		cmp	r3, #2
  83 008c 0F00000A 		beq	.L2
  84              	.LM9:
  85 0090 80209FE5 		ldr	r2, .L6
  86 0094 0539A0E3 		mov	r3, #81920
  87 0098 503083E2 		add	r3, r3, #80
  88 009c 003082E5 		str	r3, [r2, #0]
  89              	.LM10:
  90 00a0 70209FE5 		ldr	r2, .L6
  91 00a4 D63BA0E3 		mov	r3, #219136
  92 00a8 363E83E2 		add	r3, r3, #864
  93 00ac 083082E5 		str	r3, [r2, #8]
  94              	.LM11:
  95 00b0 60209FE5 		ldr	r2, .L6
  96 00b4 B33CA0E3 		mov	r3, #45824
  97 00b8 B03083E2 		add	r3, r3, #176
  98 00bc 183082E5 		str	r3, [r2, #24]
  99              	.LM12:
 100 00c0 50209FE5 		ldr	r2, .L6
 101 00c4 7D3BA0E3 		mov	r3, #128000
 102 00c8 1C3082E5 		str	r3, [r2, #28]
 103 00cc 0E0000EA 		b	.L5
 104              	.L2:
 105              	.LM13:
 106 00d0 40209FE5 		ldr	r2, .L6
 107 00d4 0539A0E3 		mov	r3, #81920
 108 00d8 503083E2 		add	r3, r3, #80
 109 00dc 003082E5 		str	r3, [r2, #0]
 110              	.LM14:
 111 00e0 30209FE5 		ldr	r2, .L6
 112 00e4 0739A0E3 		mov	r3, #114688
 113 00e8 4E3F83E2 		add	r3, r3, #312
 114 00ec 083082E5 		str	r3, [r2, #8]
 115              	.LM15:
 116 00f0 20209FE5 		ldr	r2, .L6
 117 00f4 B33CA0E3 		mov	r3, #45824
 118 00f8 B03083E2 		add	r3, r3, #176
 119 00fc 183082E5 		str	r3, [r2, #24]
 120              	.LM16:
 121 0100 10209FE5 		ldr	r2, .L6
 122 0104 7D3BA0E3 		mov	r3, #128000
 123 0108 1C3082E5 		str	r3, [r2, #28]
 124              	.L5:
 125              	.LM17:
 126 010c 0CD04BE2 		sub	sp, fp, #12
 127 0110 00689DE8 		ldmfd	sp, {fp, sp, lr}
 128 0114 1EFF2FE1 		bx	lr
 129              	.L7:
 130              		.align	2
 131              	.L6:
 132 0118 00000000 		.word	CAMERA_ptu
 133 011c 00000000 		.word	PTU_cam_option_4_version
 134              	.LFE2:
 136              		.bss
 137 0009 000000   		.align	2
 138              	cam_angle_pitch.1640:
 139 000c 00000000 		.space	4
 140              		.align	2
 141              	ptu_cnt.1636:
 142 0010 00000000 		.space	4
 143              		.text
 144              		.align	2
 145              		.global	PTU_update
 147              	PTU_update:
 148              	.LFB3:
 149              	.LM18:
 150              		@ Function supports interworking.
 151              		@ args = 0, pretend = 0, frame = 12
 152              		@ frame_needed = 1, uses_anonymous_args = 0
 153 0120 0DC0A0E1 		mov	ip, sp
 154              	.LCFI3:
 155 0124 00D82DE9 		stmfd	sp!, {fp, ip, lr, pc}
 156              	.LCFI4:
 157 0128 04B04CE2 		sub	fp, ip, #4
 158              	.LCFI5:
 159 012c 0CD04DE2 		sub	sp, sp, #12
 160              	.LCFI6:
 161              	.LM19:
 162 0130 C8329FE5 		ldr	r3, .L20
 163 0134 003093E5 		ldr	r3, [r3, #0]
 164 0138 012083E2 		add	r2, r3, #1
 165 013c BC329FE5 		ldr	r3, .L20
 166 0140 002083E5 		str	r2, [r3, #0]
 167 0144 B4329FE5 		ldr	r3, .L20
 168 0148 003093E5 		ldr	r3, [r3, #0]
 169 014c 090053E3 		cmp	r3, #9
 170 0150 A70000DA 		ble	.L19
 171              	.LBB2:
 172              	.LM20:
 173 0154 A4229FE5 		ldr	r2, .L20
 174 0158 0030A0E3 		mov	r3, #0
 175 015c 003082E5 		str	r3, [r2, #0]
 176              	.LM21:
 177 0160 9C329FE5 		ldr	r3, .L20+4
 178 0164 0030D3E5 		ldrb	r3, [r3, #0]	@ zero_extendqisi2
 179 0168 000053E3 		cmp	r3, #0
 180 016c 2500000A 		beq	.L11
 181              	.LBB3:
 182              	.LM22:
 183 0170 90329FE5 		ldr	r3, .L20+8
 184 0174 B830D3E1 		ldrh	r3, [r3, #8]
 185 0178 0320A0E1 		mov	r2, r3
 186 017c 0230A0E1 		mov	r3, r2
 187 0180 8332A0E1 		mov	r3, r3, asl #5
 188 0184 023083E0 		add	r3, r3, r2
 189 0188 8331A0E1 		mov	r3, r3, asl #3
 190 018c 033062E0 		rsb	r3, r2, r3
 191 0190 0331A0E1 		mov	r3, r3, asl #2
 192 0194 023083E0 		add	r3, r3, r2
 193 0198 0331A0E1 		mov	r3, r3, asl #2
 194 019c 023083E0 		add	r3, r3, r2
 195 01a0 8321A0E1 		mov	r2, r3, asl #3
 196 01a4 023063E0 		rsb	r3, r3, r2
 197 01a8 3F3383E2 		add	r3, r3, #-67108864
 198 01ac 663883E2 		add	r3, r3, #6684672
 199 01b0 1A3B83E2 		add	r3, r3, #26624
 200 01b4 0320A0E1 		mov	r2, r3
 201 01b8 7F3E82E2 		add	r3, r2, #2032
 202 01bc 0F3083E2 		add	r3, r3, #15
 203 01c0 000052E3 		cmp	r2, #0
 204 01c4 0320A0B1 		movlt	r2, r3
 205 01c8 C235A0E1 		mov	r3, r2, asr #11
 206 01cc 563B83E2 		add	r3, r3, #88064
 207 01d0 663F83E2 		add	r3, r3, #408
 208 01d4 013083E2 		add	r3, r3, #1
 209 01d8 10300BE5 		str	r3, [fp, #-16]
 210              	.LM23:
 211 01dc 0E32A0E3 		mov	r3, #-536870912
 212 01e0 053983E2 		add	r3, r3, #81920
 213 01e4 443083E2 		add	r3, r3, #68
 214 01e8 10201BE5 		ldr	r2, [fp, #-16]
 215 01ec 002083E5 		str	r2, [r3, #0]
 216              	.LM24:
 217 01f0 0E32A0E3 		mov	r3, #-536870912
 218 01f4 053983E2 		add	r3, r3, #81920
 219 01f8 503083E2 		add	r3, r3, #80
 220 01fc 2620A0E3 		mov	r2, #38
 221 0200 002083E5 		str	r2, [r3, #0]
 222              	.LM25:
 223 0204 7A0000EA 		b	.L19
 224              	.L11:
 225              	.LBE3:
 226              	.LM26:
 227 0208 FEFFFFEB 		bl	PTU_update_middle_positions_by_stick
 228              	.LM27:
 229 020c F8319FE5 		ldr	r3, .L20+12
 230 0210 001093E5 		ldr	r1, [r3, #0]
 231 0214 0130A0E1 		mov	r3, r1
 232 0218 0331A0E1 		mov	r3, r3, asl #2
 233 021c 013083E0 		add	r3, r3, r1
 234 0220 0321A0E1 		mov	r2, r3, asl #2
 235 0224 023083E0 		add	r3, r3, r2
 236 0228 0331A0E1 		mov	r3, r3, asl #2
 237 022c 013083E0 		add	r3, r3, r1
 238 0230 8321A0E1 		mov	r2, r3, asl #3
 239 0234 021063E0 		rsb	r1, r3, r2
 240 0238 D0319FE5 		ldr	r3, .L20+16
 241 023c 9123C3E0 		smull	r2, r3, r1, r3
 242 0240 4323A0E1 		mov	r2, r3, asr #6
 243 0244 C13FA0E1 		mov	r3, r1, asr #31
 244 0248 020063E0 		rsb	r0, r3, r2
 245 024c B8319FE5 		ldr	r3, .L20+12
 246 0250 041093E5 		ldr	r1, [r3, #4]
 247 0254 0130A0E1 		mov	r3, r1
 248 0258 0331A0E1 		mov	r3, r3, asl #2
 249 025c 013083E0 		add	r3, r3, r1
 250 0260 0321A0E1 		mov	r2, r3, asl #2
 251 0264 023083E0 		add	r3, r3, r2
 252 0268 0331A0E1 		mov	r3, r3, asl #2
 253 026c 013083E0 		add	r3, r3, r1
 254 0270 8321A0E1 		mov	r2, r3, asl #3
 255 0274 021063E0 		rsb	r1, r3, r2
 256 0278 90319FE5 		ldr	r3, .L20+16
 257 027c 9123C3E0 		smull	r2, r3, r1, r3
 258 0280 4323A0E1 		mov	r2, r3, asr #6
 259 0284 C13FA0E1 		mov	r3, r1, asr #31
 260 0288 023063E0 		rsb	r3, r3, r2
 261 028c 033080E0 		add	r3, r0, r3
 262 0290 14300BE5 		str	r3, [fp, #-20]
 263              	.LM28:
 264 0294 70319FE5 		ldr	r3, .L20+12
 265 0298 042093E5 		ldr	r2, [r3, #4]
 266 029c 0230A0E1 		mov	r3, r2
 267 02a0 033BA0E1 		mov	r3, r3, asl #22
 268 02a4 033062E0 		rsb	r3, r2, r3
 269 02a8 0331A0E1 		mov	r3, r3, asl #2
 270 02ac 023083E0 		add	r3, r3, r2
 271 02b0 0331A0E1 		mov	r3, r3, asl #2
 272 02b4 023083E0 		add	r3, r3, r2
 273 02b8 0332A0E1 		mov	r3, r3, asl #4
 274 02bc 033062E0 		rsb	r3, r2, r3
 275 02c0 0331A0E1 		mov	r3, r3, asl #2
 276 02c4 021083E0 		add	r1, r3, r2
 277 02c8 40319FE5 		ldr	r3, .L20+16
 278 02cc 9123C3E0 		smull	r2, r3, r1, r3
 279 02d0 4323A0E1 		mov	r2, r3, asr #6
 280 02d4 C13FA0E1 		mov	r3, r1, asr #31
 281 02d8 020063E0 		rsb	r0, r3, r2
 282 02dc 28319FE5 		ldr	r3, .L20+12
 283 02e0 001093E5 		ldr	r1, [r3, #0]
 284 02e4 0130A0E1 		mov	r3, r1
 285 02e8 0331A0E1 		mov	r3, r3, asl #2
 286 02ec 013083E0 		add	r3, r3, r1
 287 02f0 0321A0E1 		mov	r2, r3, asl #2
 288 02f4 023083E0 		add	r3, r3, r2
 289 02f8 0331A0E1 		mov	r3, r3, asl #2
 290 02fc 013083E0 		add	r3, r3, r1
 291 0300 8321A0E1 		mov	r2, r3, asl #3
 292 0304 021063E0 		rsb	r1, r3, r2
 293 0308 00319FE5 		ldr	r3, .L20+16
 294 030c 9123C3E0 		smull	r2, r3, r1, r3
 295 0310 4323A0E1 		mov	r2, r3, asr #6
 296 0314 C13FA0E1 		mov	r3, r1, asr #31
 297 0318 023063E0 		rsb	r3, r3, r2
 298 031c 033080E0 		add	r3, r0, r3
 299 0320 18300BE5 		str	r3, [fp, #-24]
 300              	.LM29:
 301 0324 E8309FE5 		ldr	r3, .L20+20
 302 0328 042093E5 		ldr	r2, [r3, #4]
 303 032c E4309FE5 		ldr	r3, .L20+24
 304 0330 002083E5 		str	r2, [r3, #0]
 305              	.LM30:
 306 0334 DC309FE5 		ldr	r3, .L20+24
 307 0338 002093E5 		ldr	r2, [r3, #0]
 308 033c 573BE0E3 		mvn	r3, #89088
 309 0340 E33F43E2 		sub	r3, r3, #908
 310 0344 033043E2 		sub	r3, r3, #3
 311 0348 030052E1 		cmp	r2, r3
 312 034c 050000AA 		bge	.L13
 313 0350 C0209FE5 		ldr	r2, .L20+24
 314 0354 573BE0E3 		mvn	r3, #89088
 315 0358 E33F43E2 		sub	r3, r3, #908
 316 035c 033043E2 		sub	r3, r3, #3
 317 0360 003082E5 		str	r3, [r2, #0]
 318 0364 060000EA 		b	.L15
 319              	.L13:
 320              	.LM31:
 321 0368 A8309FE5 		ldr	r3, .L20+24
 322 036c 003093E5 		ldr	r3, [r3, #0]
 323 0370 000053E3 		cmp	r3, #0
 324 0374 020000DA 		ble	.L15
 325 0378 98209FE5 		ldr	r2, .L20+24
 326 037c 0030A0E3 		mov	r3, #0
 327 0380 003082E5 		str	r3, [r2, #0]
 328              	.L15:
 329              	.LM32:
 330 0384 88309FE5 		ldr	r3, .L20+20
 331 0388 B030D3E1 		ldrh	r3, [r3, #0]
 332 038c 023003E2 		and	r3, r3, #2
 333 0390 000053E3 		cmp	r3, #0
 334 0394 0900000A 		beq	.L17
 335              	.LM33:
 336 0398 78309FE5 		ldr	r3, .L20+24
 337 039c 003093E5 		ldr	r3, [r3, #0]
 338 03a0 0300A0E1 		mov	r0, r3
 339 03a4 FEFFFFEB 		bl	SERVO_pitch_move
 340              	.LM34:
 341 03a8 64309FE5 		ldr	r3, .L20+20
 342 03ac 083093E5 		ldr	r3, [r3, #8]
 343 03b0 003063E2 		rsb	r3, r3, #0
 344 03b4 0300A0E1 		mov	r0, r3
 345 03b8 FEFFFFEB 		bl	SERVO_roll_move
 346 03bc 0C0000EA 		b	.L19
 347              	.L17:
 348              	.LM35:
 349 03c0 50309FE5 		ldr	r3, .L20+24
 350 03c4 002093E5 		ldr	r2, [r3, #0]
 351 03c8 18301BE5 		ldr	r3, [fp, #-24]
 352 03cc 033082E0 		add	r3, r2, r3
 353 03d0 0300A0E1 		mov	r0, r3
 354 03d4 FEFFFFEB 		bl	SERVO_pitch_move
 355              	.LM36:
 356 03d8 34309FE5 		ldr	r3, .L20+20
 357 03dc 082093E5 		ldr	r2, [r3, #8]
 358 03e0 14301BE5 		ldr	r3, [fp, #-20]
 359 03e4 033082E0 		add	r3, r2, r3
 360 03e8 003063E2 		rsb	r3, r3, #0
 361 03ec 0300A0E1 		mov	r0, r3
 362 03f0 FEFFFFEB 		bl	SERVO_roll_move
 363              	.L19:
 364              	.LBE2:
 365              	.LM37:
 366 03f4 0CD04BE2 		sub	sp, fp, #12
 367 03f8 00689DE8 		ldmfd	sp, {fp, sp, lr}
 368 03fc 1EFF2FE1 		bx	lr
 369              	.L21:
 370              		.align	2
 371              	.L20:
 372 0400 10000000 		.word	ptu_cnt.1636
 373 0404 00000000 		.word	PTU_enable_plain_ch7_to_servo
 374 0408 00000000 		.word	RO_RC_Data
 375 040c 00000000 		.word	IMU_CalcData
 376 0410 D34D6210 		.word	274877907
 377 0414 00000000 		.word	CAMERA_Commands
 378 0418 0C000000 		.word	cam_angle_pitch.1640
 379              	.LFE3:
 381              		.align	2
 382              		.global	SERVO_pitch_move
 384              	SERVO_pitch_move:
 385              	.LFB4:
 386              	.LM38:
 387              		@ Function supports interworking.
 388              		@ args = 0, pretend = 0, frame = 8
 389              		@ frame_needed = 1, uses_anonymous_args = 0
 390 041c 0DC0A0E1 		mov	ip, sp
 391              	.LCFI7:
 392 0420 00D82DE9 		stmfd	sp!, {fp, ip, lr, pc}
 393              	.LCFI8:
 394 0424 04B04CE2 		sub	fp, ip, #4
 395              	.LCFI9:
 396 0428 08D04DE2 		sub	sp, sp, #8
 397              	.LCFI10:
 398 042c 14000BE5 		str	r0, [fp, #-20]
 399              	.LM39:
 400 0430 C0309FE5 		ldr	r3, .L28
 401 0434 040093E5 		ldr	r0, [r3, #4]
 402 0438 14101BE5 		ldr	r1, [fp, #-20]
 403 043c B8309FE5 		ldr	r3, .L28+4
 404 0440 9123C3E0 		smull	r2, r3, r1, r3
 405 0444 4321A0E1 		mov	r2, r3, asr #2
 406 0448 C13FA0E1 		mov	r3, r1, asr #31
 407 044c 022063E0 		rsb	r2, r3, r2
 408 0450 A0309FE5 		ldr	r3, .L28
 409 0454 0C3093E5 		ldr	r3, [r3, #12]
 410 0458 930201E0 		mul	r1, r3, r2
 411 045c 9C309FE5 		ldr	r3, .L28+8
 412 0460 9123C3E0 		smull	r2, r3, r1, r3
 413 0464 4326A0E1 		mov	r2, r3, asr #12
 414 0468 C13FA0E1 		mov	r3, r1, asr #31
 415 046c 023063E0 		rsb	r3, r3, r2
 416 0470 033080E0 		add	r3, r0, r3
 417 0474 10300BE5 		str	r3, [fp, #-16]
 418              	.LM40:
 419 0478 78309FE5 		ldr	r3, .L28
 420 047c 143093E5 		ldr	r3, [r3, #20]
 421 0480 0320A0E1 		mov	r2, r3
 422 0484 10301BE5 		ldr	r3, [fp, #-16]
 423 0488 030052E1 		cmp	r2, r3
 424 048c 0300002A 		bcs	.L23
 425 0490 60309FE5 		ldr	r3, .L28
 426 0494 143093E5 		ldr	r3, [r3, #20]
 427 0498 10300BE5 		str	r3, [fp, #-16]
 428 049c 080000EA 		b	.L25
 429              	.L23:
 430              	.LM41:
 431 04a0 50309FE5 		ldr	r3, .L28
 432 04a4 103093E5 		ldr	r3, [r3, #16]
 433 04a8 0320A0E1 		mov	r2, r3
 434 04ac 10301BE5 		ldr	r3, [fp, #-16]
 435 04b0 030052E1 		cmp	r2, r3
 436 04b4 0200009A 		bls	.L25
 437 04b8 38309FE5 		ldr	r3, .L28
 438 04bc 103093E5 		ldr	r3, [r3, #16]
 439 04c0 10300BE5 		str	r3, [fp, #-16]
 440              	.L25:
 441              	.LM42:
 442 04c4 0E32A0E3 		mov	r3, #-536870912
 443 04c8 053983E2 		add	r3, r3, #81920
 444 04cc 443083E2 		add	r3, r3, #68
 445 04d0 10201BE5 		ldr	r2, [fp, #-16]
 446 04d4 002083E5 		str	r2, [r3, #0]
 447              	.LM43:
 448 04d8 0E32A0E3 		mov	r3, #-536870912
 449 04dc 053983E2 		add	r3, r3, #81920
 450 04e0 503083E2 		add	r3, r3, #80
 451 04e4 2620A0E3 		mov	r2, #38
 452 04e8 002083E5 		str	r2, [r3, #0]
 453              	.LM44:
 454 04ec 0CD04BE2 		sub	sp, fp, #12
 455 04f0 00689DE8 		ldmfd	sp, {fp, sp, lr}
 456 04f4 1EFF2FE1 		bx	lr
 457              	.L29:
 458              		.align	2
 459              	.L28:
 460 04f8 00000000 		.word	CAMERA_ptu
 461 04fc 67666666 		.word	1717986919
 462 0500 6B298274 		.word	1954687339
 463              	.LFE4:
 465              		.align	2
 466              		.global	SERVO_roll_move
 468              	SERVO_roll_move:
 469              	.LFB5:
 470              	.LM45:
 471              		@ Function supports interworking.
 472              		@ args = 0, pretend = 0, frame = 8
 473              		@ frame_needed = 1, uses_anonymous_args = 0
 474 0504 0DC0A0E1 		mov	ip, sp
 475              	.LCFI11:
 476 0508 00D82DE9 		stmfd	sp!, {fp, ip, lr, pc}
 477              	.LCFI12:
 478 050c 04B04CE2 		sub	fp, ip, #4
 479              	.LCFI13:
 480 0510 08D04DE2 		sub	sp, sp, #8
 481              	.LCFI14:
 482 0514 14000BE5 		str	r0, [fp, #-20]
 483              	.LM46:
 484 0518 B8309FE5 		ldr	r3, .L36
 485 051c 000093E5 		ldr	r0, [r3, #0]
 486 0520 14101BE5 		ldr	r1, [fp, #-20]
 487 0524 B0309FE5 		ldr	r3, .L36+4
 488 0528 9123C3E0 		smull	r2, r3, r1, r3
 489 052c 4321A0E1 		mov	r2, r3, asr #2
 490 0530 C13FA0E1 		mov	r3, r1, asr #31
 491 0534 022063E0 		rsb	r2, r3, r2
 492 0538 98309FE5 		ldr	r3, .L36
 493 053c 083093E5 		ldr	r3, [r3, #8]
 494 0540 930201E0 		mul	r1, r3, r2
 495 0544 94309FE5 		ldr	r3, .L36+8
 496 0548 9123C3E0 		smull	r2, r3, r1, r3
 497 054c 4326A0E1 		mov	r2, r3, asr #12
 498 0550 C13FA0E1 		mov	r3, r1, asr #31
 499 0554 023063E0 		rsb	r3, r3, r2
 500 0558 033080E0 		add	r3, r0, r3
 501 055c 10300BE5 		str	r3, [fp, #-16]
 502              	.LM47:
 503 0560 70309FE5 		ldr	r3, .L36
 504 0564 1C2093E5 		ldr	r2, [r3, #28]
 505 0568 10301BE5 		ldr	r3, [fp, #-16]
 506 056c 030052E1 		cmp	r2, r3
 507 0570 030000AA 		bge	.L31
 508 0574 5C309FE5 		ldr	r3, .L36
 509 0578 1C3093E5 		ldr	r3, [r3, #28]
 510 057c 10300BE5 		str	r3, [fp, #-16]
 511 0580 070000EA 		b	.L33
 512              	.L31:
 513              	.LM48:
 514 0584 4C309FE5 		ldr	r3, .L36
 515 0588 182093E5 		ldr	r2, [r3, #24]
 516 058c 10301BE5 		ldr	r3, [fp, #-16]
 517 0590 030052E1 		cmp	r2, r3
 518 0594 020000DA 		ble	.L33
 519 0598 38309FE5 		ldr	r3, .L36
 520 059c 183093E5 		ldr	r3, [r3, #24]
 521 05a0 10300BE5 		str	r3, [fp, #-16]
 522              	.L33:
 523              	.LM49:
 524 05a4 0E32A0E3 		mov	r3, #-536870912
 525 05a8 053983E2 		add	r3, r3, #81920
 526 05ac 203083E2 		add	r3, r3, #32
 527 05b0 10201BE5 		ldr	r2, [fp, #-16]
 528 05b4 002083E5 		str	r2, [r3, #0]
 529              	.LM50:
 530 05b8 0E32A0E3 		mov	r3, #-536870912
 531 05bc 053983E2 		add	r3, r3, #81920
 532 05c0 503083E2 		add	r3, r3, #80
 533 05c4 2620A0E3 		mov	r2, #38
 534 05c8 002083E5 		str	r2, [r3, #0]
 535              	.LM51:
 536 05cc 0CD04BE2 		sub	sp, fp, #12
 537 05d0 00689DE8 		ldmfd	sp, {fp, sp, lr}
 538 05d4 1EFF2FE1 		bx	lr
 539              	.L37:
 540              		.align	2
 541              	.L36:
 542 05d8 00000000 		.word	CAMERA_ptu
 543 05dc 67666666 		.word	1717986919
 544 05e0 6B298274 		.word	1954687339
 545              	.LFE5:
 547              		.bss
 548              		.align	2
 549              	reset_timeout_pitch.1744:
 550 0014 00000000 		.space	4
 551              	pitch_offset_changed.1743:
 552 0018 00       		.space	1
 553 0019 000000   		.align	2
 554              	reset_timeout_roll.1739:
 555 001c 00000000 		.space	4
 556              	roll_offset_changed.1738:
 557 0020 00       		.space	1
 558 0021 000000   		.text
 559              		.align	2
 560              		.global	PTU_update_middle_positions_by_stick
 562              	PTU_update_middle_positions_by_stick:
 563              	.LFB6:
 564              	.LM52:
 565              		@ Function supports interworking.
 566              		@ args = 0, pretend = 0, frame = 8
 567              		@ frame_needed = 1, uses_anonymous_args = 0
 568 05e4 0DC0A0E1 		mov	ip, sp
 569              	.LCFI15:
 570 05e8 00D82DE9 		stmfd	sp!, {fp, ip, lr, pc}
 571              	.LCFI16:
 572 05ec 04B04CE2 		sub	fp, ip, #4
 573              	.LCFI17:
 574 05f0 08D04DE2 		sub	sp, sp, #8
 575              	.LCFI18:
 576              	.LM53:
 577 05f4 0030A0E3 		mov	r3, #0
 578 05f8 14300BE5 		str	r3, [fp, #-20]
 579              	.LM54:
 580 05fc 04339FE5 		ldr	r3, .L76
 581 0600 BA35D3E1 		ldrh	r3, [r3, #90]
 582 0604 0338A0E1 		mov	r3, r3, asl #16
 583 0608 2338A0E1 		mov	r3, r3, lsr #16
 584 060c 013003E2 		and	r3, r3, #1
 585 0610 000053E3 		cmp	r3, #0
 586 0614 5700001A 		bne	.L39
 587              	.LM55:
 588 0618 EC329FE5 		ldr	r3, .L76+4
 589 061c 003093E5 		ldr	r3, [r3, #0]
 590 0620 000053E3 		cmp	r3, #0
 591 0624 0500000A 		beq	.L41
 592              	.LM56:
 593 0628 DC329FE5 		ldr	r3, .L76+4
 594 062c 003093E5 		ldr	r3, [r3, #0]
 595 0630 012043E2 		sub	r2, r3, #1
 596 0634 D0329FE5 		ldr	r3, .L76+4
 597 0638 002083E5 		str	r2, [r3, #0]
 598 063c 4D0000EA 		b	.L39
 599              	.L41:
 600              	.LM57:
 601 0640 C0329FE5 		ldr	r3, .L76
 602 0644 1030D3E5 		ldrb	r3, [r3, #16]	@ zero_extendqisi2
 603 0648 F00053E3 		cmp	r3, #240
 604 064c 4000009A 		bls	.L43
 605              	.LM58:
 606 0650 B0329FE5 		ldr	r3, .L76
 607 0654 0F30D3E5 		ldrb	r3, [r3, #15]	@ zero_extendqisi2
 608 0658 8A0053E3 		cmp	r3, #138
 609 065c 0800009A 		bls	.L45
 610 0660 A0329FE5 		ldr	r3, .L76
 611 0664 0F30D3E5 		ldrb	r3, [r3, #15]	@ zero_extendqisi2
 612 0668 8A2043E2 		sub	r2, r3, #138
 613 066c 9C329FE5 		ldr	r3, .L76+8
 614 0670 9302C1E0 		smull	r0, r1, r3, r2
 615 0674 C23FA0E1 		mov	r3, r2, asr #31
 616 0678 013063E0 		rsb	r3, r3, r1
 617 067c 14300BE5 		str	r3, [fp, #-20]
 618 0680 0E0000EA 		b	.L47
 619              	.L45:
 620              	.LM59:
 621 0684 7C329FE5 		ldr	r3, .L76
 622 0688 0F30D3E5 		ldrb	r3, [r3, #15]	@ zero_extendqisi2
 623 068c 750053E3 		cmp	r3, #117
 624 0690 0800008A 		bhi	.L48
 625 0694 6C329FE5 		ldr	r3, .L76
 626 0698 0F30D3E5 		ldrb	r3, [r3, #15]	@ zero_extendqisi2
 627 069c 762043E2 		sub	r2, r3, #118
 628 06a0 68329FE5 		ldr	r3, .L76+8
 629 06a4 9302C1E0 		smull	r0, r1, r3, r2
 630 06a8 C23FA0E1 		mov	r3, r2, asr #31
 631 06ac 013063E0 		rsb	r3, r3, r1
 632 06b0 14300BE5 		str	r3, [fp, #-20]
 633 06b4 010000EA 		b	.L47
 634              	.L48:
 635              	.LM60:
 636 06b8 0030A0E3 		mov	r3, #0
 637 06bc 14300BE5 		str	r3, [fp, #-20]
 638              	.L47:
 639              	.LM61:
 640 06c0 4C329FE5 		ldr	r3, .L76+12
 641 06c4 002093E5 		ldr	r2, [r3, #0]
 642 06c8 14301BE5 		ldr	r3, [fp, #-20]
 643 06cc 032082E0 		add	r2, r2, r3
 644 06d0 3C329FE5 		ldr	r3, .L76+12
 645 06d4 002083E5 		str	r2, [r3, #0]
 646              	.LM62:
 647 06d8 34329FE5 		ldr	r3, .L76+12
 648 06dc 002093E5 		ldr	r2, [r3, #0]
 649 06e0 4E3CA0E3 		mov	r3, #19968
 650 06e4 203083E2 		add	r3, r3, #32
 651 06e8 030052E1 		cmp	r2, r3
 652 06ec 050000DA 		ble	.L50
 653              	.LM63:
 654 06f0 1C229FE5 		ldr	r2, .L76+12
 655 06f4 0030A0E3 		mov	r3, #0
 656 06f8 003082E5 		str	r3, [r2, #0]
 657              	.LM64:
 658 06fc 08229FE5 		ldr	r2, .L76+4
 659 0700 FA3FA0E3 		mov	r3, #1000
 660 0704 003082E5 		str	r3, [r2, #0]
 661              	.L50:
 662              	.LM65:
 663 0708 04329FE5 		ldr	r3, .L76+12
 664 070c 002093E5 		ldr	r2, [r3, #0]
 665 0710 4E3CE0E3 		mvn	r3, #19968
 666 0714 1F3043E2 		sub	r3, r3, #31
 667 0718 030052E1 		cmp	r2, r3
 668 071c 050000AA 		bge	.L52
 669              	.LM66:
 670 0720 EC219FE5 		ldr	r2, .L76+12
 671 0724 0030A0E3 		mov	r3, #0
 672 0728 003082E5 		str	r3, [r2, #0]
 673              	.LM67:
 674 072c D8219FE5 		ldr	r2, .L76+4
 675 0730 FA3FA0E3 		mov	r3, #1000
 676 0734 003082E5 		str	r3, [r2, #0]
 677              	.L52:
 678              	.LM68:
 679 0738 14301BE5 		ldr	r3, [fp, #-20]
 680 073c 000053E3 		cmp	r3, #0
 681 0740 0C00000A 		beq	.L39
 682 0744 CC319FE5 		ldr	r3, .L76+16
 683 0748 0120A0E3 		mov	r2, #1
 684 074c 0020C3E5 		strb	r2, [r3, #0]
 685 0750 080000EA 		b	.L39
 686              	.L43:
 687              	.LM69:
 688 0754 BC319FE5 		ldr	r3, .L76+16
 689 0758 0030D3E5 		ldrb	r3, [r3, #0]	@ zero_extendqisi2
 690 075c 000053E3 		cmp	r3, #0
 691 0760 0400000A 		beq	.L39
 692              	.LM70:
 693 0764 AC319FE5 		ldr	r3, .L76+16
 694 0768 0020A0E3 		mov	r2, #0
 695 076c 0020C3E5 		strb	r2, [r3, #0]
 696              	.LM71:
 697 0770 FEFFFFEB 		bl	lpc_aci_SavePara
 698              	.LM72:
 699 0774 FEFFFFEB 		bl	lpc_aci_WriteParatoFlash
 700              	.L39:
 701              	.LM73:
 702 0778 0030A0E3 		mov	r3, #0
 703 077c 10300BE5 		str	r3, [fp, #-16]
 704              	.LM74:
 705 0780 80319FE5 		ldr	r3, .L76
 706 0784 BA35D3E1 		ldrh	r3, [r3, #90]
 707 0788 0338A0E1 		mov	r3, r3, asl #16
 708 078c 2338A0E1 		mov	r3, r3, lsr #16
 709 0790 013003E2 		and	r3, r3, #1
 710 0794 000053E3 		cmp	r3, #0
 711 0798 5700001A 		bne	.L75
 712              	.LM75:
 713 079c 78319FE5 		ldr	r3, .L76+20
 714 07a0 003093E5 		ldr	r3, [r3, #0]
 715 07a4 000053E3 		cmp	r3, #0
 716 07a8 0500000A 		beq	.L59
 717              	.LM76:
 718 07ac 68319FE5 		ldr	r3, .L76+20
 719 07b0 003093E5 		ldr	r3, [r3, #0]
 720 07b4 012043E2 		sub	r2, r3, #1
 721 07b8 5C319FE5 		ldr	r3, .L76+20
 722 07bc 002083E5 		str	r2, [r3, #0]
 723 07c0 4D0000EA 		b	.L75
 724              	.L59:
 725              	.LM77:
 726 07c4 3C319FE5 		ldr	r3, .L76
 727 07c8 1030D3E5 		ldrb	r3, [r3, #16]	@ zero_extendqisi2
 728 07cc F00053E3 		cmp	r3, #240
 729 07d0 4000009A 		bls	.L61
 730              	.LM78:
 731 07d4 2C319FE5 		ldr	r3, .L76
 732 07d8 0E30D3E5 		ldrb	r3, [r3, #14]	@ zero_extendqisi2
 733 07dc 8A0053E3 		cmp	r3, #138
 734 07e0 0800009A 		bls	.L63
 735 07e4 1C319FE5 		ldr	r3, .L76
 736 07e8 0E30D3E5 		ldrb	r3, [r3, #14]	@ zero_extendqisi2
 737 07ec 8A3043E2 		sub	r3, r3, #138
 738 07f0 032083E2 		add	r2, r3, #3
 739 07f4 000053E3 		cmp	r3, #0
 740 07f8 0230A0B1 		movlt	r3, r2
 741 07fc 4331A0E1 		mov	r3, r3, asr #2
 742 0800 10300BE5 		str	r3, [fp, #-16]
 743 0804 0E0000EA 		b	.L65
 744              	.L63:
 745              	.LM79:
 746 0808 F8309FE5 		ldr	r3, .L76
 747 080c 0E30D3E5 		ldrb	r3, [r3, #14]	@ zero_extendqisi2
 748 0810 750053E3 		cmp	r3, #117
 749 0814 0800008A 		bhi	.L66
 750 0818 E8309FE5 		ldr	r3, .L76
 751 081c 0E30D3E5 		ldrb	r3, [r3, #14]	@ zero_extendqisi2
 752 0820 763043E2 		sub	r3, r3, #118
 753 0824 032083E2 		add	r2, r3, #3
 754 0828 000053E3 		cmp	r3, #0
 755 082c 0230A0B1 		movlt	r3, r2
 756 0830 4331A0E1 		mov	r3, r3, asr #2
 757 0834 10300BE5 		str	r3, [fp, #-16]
 758 0838 010000EA 		b	.L65
 759              	.L66:
 760              	.LM80:
 761 083c 0030A0E3 		mov	r3, #0
 762 0840 10300BE5 		str	r3, [fp, #-16]
 763              	.L65:
 764              	.LM81:
 765 0844 D4309FE5 		ldr	r3, .L76+24
 766 0848 002093E5 		ldr	r2, [r3, #0]
 767 084c 10301BE5 		ldr	r3, [fp, #-16]
 768 0850 032082E0 		add	r2, r2, r3
 769 0854 C4309FE5 		ldr	r3, .L76+24
 770 0858 002083E5 		str	r2, [r3, #0]
 771              	.LM82:
 772 085c BC309FE5 		ldr	r3, .L76+24
 773 0860 002093E5 		ldr	r2, [r3, #0]
 774 0864 4E3CA0E3 		mov	r3, #19968
 775 0868 203083E2 		add	r3, r3, #32
 776 086c 030052E1 		cmp	r2, r3
 777 0870 050000DA 		ble	.L68
 778              	.LM83:
 779 0874 A4209FE5 		ldr	r2, .L76+24
 780 0878 0030A0E3 		mov	r3, #0
 781 087c 003082E5 		str	r3, [r2, #0]
 782              	.LM84:
 783 0880 94209FE5 		ldr	r2, .L76+20
 784 0884 FA3FA0E3 		mov	r3, #1000
 785 0888 003082E5 		str	r3, [r2, #0]
 786              	.L68:
 787              	.LM85:
 788 088c 8C309FE5 		ldr	r3, .L76+24
 789 0890 002093E5 		ldr	r2, [r3, #0]
 790 0894 4E3CE0E3 		mvn	r3, #19968
 791 0898 1F3043E2 		sub	r3, r3, #31
 792 089c 030052E1 		cmp	r2, r3
 793 08a0 050000AA 		bge	.L70
 794              	.LM86:
 795 08a4 74209FE5 		ldr	r2, .L76+24
 796 08a8 0030A0E3 		mov	r3, #0
 797 08ac 003082E5 		str	r3, [r2, #0]
 798              	.LM87:
 799 08b0 64209FE5 		ldr	r2, .L76+20
 800 08b4 FA3FA0E3 		mov	r3, #1000
 801 08b8 003082E5 		str	r3, [r2, #0]
 802              	.L70:
 803              	.LM88:
 804 08bc 10301BE5 		ldr	r3, [fp, #-16]
 805 08c0 000053E3 		cmp	r3, #0
 806 08c4 0C00000A 		beq	.L75
 807 08c8 54309FE5 		ldr	r3, .L76+28
 808 08cc 0120A0E3 		mov	r2, #1
 809 08d0 0020C3E5 		strb	r2, [r3, #0]
 810 08d4 080000EA 		b	.L75
 811              	.L61:
 812              	.LM89:
 813 08d8 44309FE5 		ldr	r3, .L76+28
 814 08dc 0030D3E5 		ldrb	r3, [r3, #0]	@ zero_extendqisi2
 815 08e0 000053E3 		cmp	r3, #0
 816 08e4 0400000A 		beq	.L75
 817              	.LM90:
 818 08e8 34309FE5 		ldr	r3, .L76+28
 819 08ec 0020A0E3 		mov	r2, #0
 820 08f0 0020C3E5 		strb	r2, [r3, #0]
 821              	.LM91:
 822 08f4 FEFFFFEB 		bl	lpc_aci_SavePara
 823              	.LM92:
 824 08f8 FEFFFFEB 		bl	lpc_aci_WriteParatoFlash
 825              	.L75:
 826              	.LM93:
 827 08fc 0CD04BE2 		sub	sp, fp, #12
 828 0900 00689DE8 		ldmfd	sp, {fp, sp, lr}
 829 0904 1EFF2FE1 		bx	lr
 830              	.L77:
 831              		.align	2
 832              	.L76:
 833 0908 00000000 		.word	LL_1khz_attitude_data
 834 090c 1C000000 		.word	reset_timeout_roll.1739
 835 0910 ABAAAA2A 		.word	715827883
 836 0914 00000000 		.word	PTU_cam_angle_roll_offset
 837 0918 20000000 		.word	roll_offset_changed.1738
 838 091c 14000000 		.word	reset_timeout_pitch.1744
 839 0920 00000000 		.word	PTU_cam_angle_pitch_offset
 840 0924 18000000 		.word	pitch_offset_changed.1743
 841              	.LFE6:
 843              		.comm	GPS_timeout,4,4
 844              		.comm	SYSTEM_initialized,1,1
 845              		.comm	CAMERA_ptu,32,4
 846              		.comm	CAMERA_Commands,12,4
 988              	.Letext0: