   1              		.file	"sdk.c"
   9              	.Ltext0:
  10              		.align	2
  11              		.global	SDK_SetEmergencyMode
  13              	SDK_SetEmergencyMode:
  14              	.LFB3:
  15              	.LM1:
  16              		@ Function supports interworking.
  17              		@ args = 0, pretend = 0, frame = 0
  18              		@ frame_needed = 0, uses_anonymous_args = 0
  19              		@ link register save eliminated.
  20              	.LVL0:
  21 0000 FF0000E2 		and	r0, r0, #255
  22              	.LM2:
  23 0004 013040E2 		sub	r3, r0, #1
  24 0008 080050E3 		cmp	r0, #8
  25 000c 01005313 		cmpne	r3, #1
  26              	.LM3:
  27              		@ lr needed for prologue
  28              	.LM4:
  29 0010 0100009A 		bls	.L2
  30 0014 040050E3 		cmp	r0, #4
  31 0018 1EFF2F11 		bxne	lr
  32              	.L2:
  33              	.LM5:
  34 001c 10309FE5 		ldr	r3, .L7
  35 0020 0000C3E5 		strb	r0, [r3, #0]
  36              	.LM6:
  37 0024 0C309FE5 		ldr	r3, .L7+4
  38 0028 0120A0E3 		mov	r2, #1
  39 002c 0020C3E5 		strb	r2, [r3, #0]
  40 0030 1EFF2FE1 		bx	lr
  41              	.L8:
  42              		.align	2
  43              	.L7:
  44 0034 00000000 		.word	emergencyMode
  45 0038 00000000 		.word	emergencyModeUpdate
  46              	.LFE3:
  48              		.align	2
  49              		.global	SDK_EXAMPLE_direct_individual_motor_commands
  51              	SDK_EXAMPLE_direct_individual_motor_commands:
  52              	.LFB4:
  53              	.LM7:
  54              		@ Function supports interworking.
  55              		@ args = 0, pretend = 0, frame = 0
  56              		@ frame_needed = 0, uses_anonymous_args = 0
  57              		@ link register save eliminated.
  58              	.LM8:
  59 003c B0009FE5 		ldr	r0, .L23
  60 0040 B0209FE5 		ldr	r2, .L23+4
  61 0044 B031D0E1 		ldrh	r3, [r0, #16]
  62 0048 92C381E0 		umull	ip, r1, r2, r3
  63 004c 033061E0 		rsb	r3, r1, r3
  64              	.LM9:
  65 0050 B8C1D0E1 		ldrh	ip, [r0, #24]
  66              	.LM10:
  67 0054 A31081E0 		add	r1, r1, r3, lsr #1
  68              	.LM11:
  69 0058 273DA0E3 		mov	r3, #2496
  70              	.LM12:
  71 005c 98009FE5 		ldr	r0, .L23+8
  72              	.LM13:
  73 0060 98209FE5 		ldr	r2, .L23+12
  74              	.LM14:
  75 0064 043083E2 		add	r3, r3, #4
  76              	.LM15:
  77 0068 2112A0E1 		mov	r1, r1, lsr #4
  78 006c FF1001E2 		and	r1, r1, #255
  79              	.LM16:
  80 0070 03005CE1 		cmp	ip, r3
  81              	.LM17:
  82 0074 0030A0E3 		mov	r3, #0
  83              	.LM18:
  84 0078 01C0A0E3 		mov	ip, #1
  85              	.LM19:
  86              		@ lr needed for prologue
  87              	.LM20:
  88 007c 0330C2E5 		strb	r3, [r2, #3]
  89              	.LM21:
  90 0080 0510C0E5 		strb	r1, [r0, #5]
  91              	.LM22:
  92 0084 0030C2E5 		strb	r3, [r2, #0]
  93              	.LM23:
  94 0088 01C0C2E5 		strb	ip, [r2, #1]
  95              	.LM24:
  96 008c 0010C0E5 		strb	r1, [r0, #0]
  97              	.LM25:
  98 0090 0110C0E5 		strb	r1, [r0, #1]
  99              	.LM26:
 100 0094 0210C0E5 		strb	r1, [r0, #2]
 101              	.LM27:
 102 0098 0310C0E5 		strb	r1, [r0, #3]
 103              	.LM28:
 104 009c 0410C0E5 		strb	r1, [r0, #4]
 105              	.LM29:
 106 00a0 0830C095 		strlsb	r3, [r0, #8]
 107              	.LM30:
 108 00a4 0400009A 		bls	.L12
 109              	.LM31:
 110 00a8 0030D0E5 		ldrb	r3, [r0, #0]	@ zero_extendqisi2
 111 00ac 500053E3 		cmp	r3, #80
 112              	.LM32:
 113 00b0 5030A083 		movhi	r3, #80
 114              	.LM33:
 115 00b4 08C0C0E5 		strb	ip, [r0, #8]
 116              	.LM34:
 117 00b8 0030C085 		strhib	r3, [r0, #0]
 118              	.L12:
 119              	.LM35:
 120 00bc 38209FE5 		ldr	r2, .L23+8
 121 00c0 0100A0E3 		mov	r0, #1
 122 00c4 061082E2 		add	r1, r2, #6
 123 00c8 37C0E0E3 		mvn	ip, #55
 124              	.L14:
 125              	.LM36:
 126 00cc 0030D2E5 		ldrb	r3, [r2, #0]	@ zero_extendqisi2
 127 00d0 000053E3 		cmp	r3, #0
 128 00d4 0000C205 		streqb	r0, [r2, #0]
 129 00d8 0100000A 		beq	.L17
 130              	.LM37:
 131 00dc C80053E3 		cmp	r3, #200
 132 00e0 00C0C285 		strhib	ip, [r2, #0]
 133              	.L17:
 134 00e4 012082E2 		add	r2, r2, #1
 135              	.LM38:
 136 00e8 010052E1 		cmp	r2, r1
 137 00ec F6FFFF1A 		bne	.L14
 138              	.LM39:
 139 00f0 1EFF2FE1 		bx	lr
 140              	.L24:
 141              		.align	2
 142              	.L23:
 143 00f4 00000000 		.word	RO_ALL_Data
 144 00f8 87611886 		.word	-2045222521
 145 00fc 00000000 		.word	WO_Direct_Individual_Motor_Control
 146 0100 00000000 		.word	WO_SDK
 147              	.LFE4:
 149              		.align	2
 150              		.global	SDK_EXAMPLE_direct_motor_commands_with_standard_output_mapping
 152              	SDK_EXAMPLE_direct_motor_commands_with_standard_output_mapping:
 153              	.LFB5:
 154              	.LM40:
 155              		@ Function supports interworking.
 156              		@ args = 0, pretend = 0, frame = 0
 157              		@ frame_needed = 0, uses_anonymous_args = 0
 158              	.LM41:
 159 0104 94309FE5 		ldr	r3, .L27
 160              	.LM42:
 161 0108 F0402DE9 		stmfd	sp!, {r4, r5, r6, r7, lr}
 162              	.LCFI0:
 163              	.LM43:
 164 010c B0C1D3E1 		ldrh	ip, [r3, #16]
 165              	.LM44:
 166 0110 8C409FE5 		ldr	r4, .L27+4
 167 0114 BE00D3E1 		ldrh	r0, [r3, #14]
 168              	.LM45:
 169 0118 BC60D3E1 		ldrh	r6, [r3, #12]
 170              	.LM46:
 171 011c B211D3E1 		ldrh	r1, [r3, #18]
 172              	.LM47:
 173 0120 FF2EA0E3 		mov	r2, #4080
 174              	.LM48:
 175 0124 943C85E0 		umull	r3, r5, r4, ip
 176              	.LM49:
 177 0128 C335A0E3 		mov	r3, #817889280
 178              	.LM50:
 179 012c 94708EE0 		umull	r7, lr, r4, r0
 180              	.LM51:
 181 0130 0F2082E2 		add	r2, r2, #15
 182 0134 C33B83E2 		add	r3, r3, #199680
 183              	.LM52:
 184 0138 021061E0 		rsb	r1, r1, r2
 185              	.LM53:
 186 013c 313083E2 		add	r3, r3, #49
 187 0140 022066E0 		rsb	r2, r6, r2
 188              	.LM54:
 189 0144 9341C6E0 		smull	r4, r6, r3, r1
 190              	.LM55:
 191 0148 9372C4E0 		smull	r7, r4, r3, r2
 192              	.LM56:
 193 014c 00006EE0 		rsb	r0, lr, r0
 194              	.LM57:
 195 0150 0CC065E0 		rsb	ip, r5, ip
 196              	.LM58:
 197 0154 4C309FE5 		ldr	r3, .L27+8
 198              	.LM59:
 199 0158 A0E08EE0 		add	lr, lr, r0, lsr #1
 200              	.LM60:
 201 015c AC5085E0 		add	r5, r5, ip, lsr #1
 202              	.LM61:
 203 0160 C22FA0E1 		mov	r2, r2, asr #31
 204              	.LM62:
 205 0164 40C09FE5 		ldr	ip, .L27+12
 206              	.LM63:
 207 0168 C11FA0E1 		mov	r1, r1, asr #31
 208              	.LM64:
 209 016c 0100A0E3 		mov	r0, #1
 210              	.LM65:
 211 0170 442162E0 		rsb	r2, r2, r4, asr #2
 212              	.LM66:
 213 0174 461161E0 		rsb	r1, r1, r6, asr #2
 214              	.LM67:
 215 0178 2EE2A0E1 		mov	lr, lr, lsr #4
 216              	.LM68:
 217 017c 2552A0E1 		mov	r5, r5, lsr #4
 218              	.LM69:
 219 0180 0100CCE5 		strb	r0, [ip, #1]
 220              	.LM70:
 221 0184 0210C3E5 		strb	r1, [r3, #2]
 222              	.LM71:
 223 0188 0020C3E5 		strb	r2, [r3, #0]
 224              	.LM72:
 225 018c 01E0C3E5 		strb	lr, [r3, #1]
 226              	.LM73:
 227 0190 0350C3E5 		strb	r5, [r3, #3]
 228              	.LM74:
 229 0194 0000CCE5 		strb	r0, [ip, #0]
 230              	.LM75:
 231 0198 F040BDE8 		ldmfd	sp!, {r4, r5, r6, r7, lr}
 232 019c 1EFF2FE1 		bx	lr
 233              	.L28:
 234              		.align	2
 235              	.L27:
 236 01a0 00000000 		.word	RO_ALL_Data
 237 01a4 87611886 		.word	-2045222521
 238 01a8 00000000 		.word	WO_Direct_Motor_Control
 239 01ac 00000000 		.word	WO_SDK
 240              	.LFE5:
 242              		.align	2
 243              		.global	SDK_EXAMPLE_attitude_commands
 245              	SDK_EXAMPLE_attitude_commands:
 246              	.LFB6:
 247              	.LM76:
 248              		@ Function supports interworking.
 249              		@ args = 0, pretend = 0, frame = 0
 250              		@ frame_needed = 0, uses_anonymous_args = 0
 251              		@ link register save eliminated.
 252              	.LM77:
 253 01b0 24109FE5 		ldr	r1, .L31
 254              	.LM78:
 255 01b4 24009FE5 		ldr	r0, .L31+4
 256              	.LM79:
 257 01b8 0130A0E3 		mov	r3, #1
 258 01bc 0130C1E5 		strb	r3, [r1, #1]
 259              	.LM80:
 260 01c0 193EA0E3 		mov	r3, #400	@ movhi
 261              	.LM81:
 262 01c4 0220A0E3 		mov	r2, #2
 263              	.LM82:
 264 01c8 B630C0E1 		strh	r3, [r0, #6]	@ movhi
 265              	.LM83:
 266 01cc 0830A0E3 		mov	r3, #8	@ movhi
 267              	.LM84:
 268              		@ lr needed for prologue
 269              	.LM85:
 270 01d0 0020C1E5 		strb	r2, [r1, #0]
 271              	.LM86:
 272 01d4 B830C0E1 		strh	r3, [r0, #8]	@ movhi
 273              	.LM87:
 274 01d8 1EFF2FE1 		bx	lr
 275              	.L32:
 276              		.align	2
 277              	.L31:
 278 01dc 00000000 		.word	WO_SDK
 279 01e0 00000000 		.word	WO_CTRL_Input
 280              	.LFE6:
 282              		.align	2
 283              		.global	SDK_EXAMPLE_turn_motors_on
 285              	SDK_EXAMPLE_turn_motors_on:
 286              	.LFB8:
 287              	.LM88:
 288              		@ Function supports interworking.
 289              		@ args = 0, pretend = 0, frame = 0
 290              		@ frame_needed = 0, uses_anonymous_args = 0
 291              	.LM89:
 292 01e4 7C009FE5 		ldr	r0, .L40
 293 01e8 003090E5 		ldr	r3, [r0, #0]
 294              	.LM90:
 295 01ec 78209FE5 		ldr	r2, .L40+4
 296              	.LM91:
 297 01f0 01C083E2 		add	ip, r3, #1
 298              	.LM92:
 299 01f4 10402DE9 		stmfd	sp!, {r4, lr}
 300              	.LCFI1:
 301              	.LM93:
 302 01f8 0110A0E3 		mov	r1, #1
 303              	.LM94:
 304 01fc 00E0A0E3 		mov	lr, #0
 305              	.LM95:
 306 0200 FA0F5CE3 		cmp	ip, #1000
 307              	.LM96:
 308 0204 0230A0E3 		mov	r3, #2
 309              	.LM97:
 310 0208 00C080E5 		str	ip, [r0, #0]
 311              	.LM98:
 312 020c 0140A0E1 		mov	r4, r1
 313              	.LM99:
 314 0210 0030C2E5 		strb	r3, [r2, #0]
 315              	.LM100:
 316 0214 03E0C2E5 		strb	lr, [r2, #3]
 317              	.LM101:
 318 0218 0110C2E5 		strb	r1, [r2, #1]
 319              	.LM102:
 320 021c 00E080A5 		strge	lr, [r0, #0]
 321              	.LM103:
 322 0220 0D0000AA 		bge	.L36
 323              	.LM104:
 324 0224 44109FE5 		ldr	r1, .L40+8
 325              	.LM105:
 326 0228 7F3EE0E3 		mvn	r3, #2032
 327              	.LM106:
 328 022c 7D0F5CE3 		cmp	ip, #500
 329              	.LM107:
 330 0230 0E3043E2 		sub	r3, r3, #14
 331 0234 B430C1D1 		strleh	r3, [r1, #4]	@ movhi
 332              	.LM108:
 333 0238 0C30A0C3 		movgt	r3, #12	@ movhi
 334              	.LM109:
 335 023c 0C30A0D3 		movle	r3, #12	@ movhi
 336              	.LM110:
 337 0240 B4E0C1C1 		strgth	lr, [r1, #4]	@ movhi
 338              	.LM111:
 339 0244 B830C1C1 		strgth	r3, [r1, #8]	@ movhi
 340              	.LM112:
 341 0248 B6E0C1C1 		strgth	lr, [r1, #6]	@ movhi
 342              	.LM113:
 343 024c B6E0C1D1 		strleh	lr, [r1, #6]	@ movhi
 344              	.LM114:
 345 0250 B830C1D1 		strleh	r3, [r1, #8]	@ movhi
 346              	.LM115:
 347 0254 0E40A0E1 		mov	r4, lr
 348              	.LM116:
 349 0258 0E40A0D1 		movle	r4, lr
 350              	.L36:
 351              	.LM117:
 352 025c 0400A0E1 		mov	r0, r4
 353 0260 1040BDE8 		ldmfd	sp!, {r4, lr}
 354 0264 1EFF2FE1 		bx	lr
 355              	.L41:
 356              		.align	2
 357              	.L40:
 358 0268 08000000 		.word	timeout.1928
 359 026c 00000000 		.word	WO_SDK
 360 0270 00000000 		.word	WO_CTRL_Input
 361              	.LFE8:
 363              		.align	2
 364              		.global	SDK_EXAMPLE_turn_motors_off
 366              	SDK_EXAMPLE_turn_motors_off:
 367              	.LFB9:
 368              	.LM118:
 369              		@ Function supports interworking.
 370              		@ args = 0, pretend = 0, frame = 0
 371              		@ frame_needed = 0, uses_anonymous_args = 0
 372              	.LM119:
 373 0274 7C009FE5 		ldr	r0, .L49
 374 0278 003090E5 		ldr	r3, [r0, #0]
 375              	.LM120:
 376 027c 78209FE5 		ldr	r2, .L49+4
 377              	.LM121:
 378 0280 01C083E2 		add	ip, r3, #1
 379              	.LM122:
 380 0284 10402DE9 		stmfd	sp!, {r4, lr}
 381              	.LCFI2:
 382              	.LM123:
 383 0288 0110A0E3 		mov	r1, #1
 384              	.LM124:
 385 028c 00E0A0E3 		mov	lr, #0
 386              	.LM125:
 387 0290 FA0F5CE3 		cmp	ip, #1000
 388              	.LM126:
 389 0294 0230A0E3 		mov	r3, #2
 390              	.LM127:
 391 0298 00C080E5 		str	ip, [r0, #0]
 392              	.LM128:
 393 029c 0140A0E1 		mov	r4, r1
 394              	.LM129:
 395 02a0 0030C2E5 		strb	r3, [r2, #0]
 396              	.LM130:
 397 02a4 03E0C2E5 		strb	lr, [r2, #3]
 398              	.LM131:
 399 02a8 0110C2E5 		strb	r1, [r2, #1]
 400              	.LM132:
 401 02ac 00E080A5 		strge	lr, [r0, #0]
 402              	.LM133:
 403 02b0 0D0000AA 		bge	.L45
 404              	.LM134:
 405 02b4 44209FE5 		ldr	r2, .L49+8
 406              	.LM135:
 407 02b8 7D0F5CE3 		cmp	ip, #500
 408              	.LM136:
 409 02bc 0230A0E1 		mov	r3, r2
 410              	.LM137:
 411 02c0 3E3BE0D3 		mvnle	r3, #63488
 412              	.LM138:
 413 02c4 B4E0C2C1 		strgth	lr, [r2, #4]	@ movhi
 414              	.LM139:
 415 02c8 B430C2D1 		strleh	r3, [r2, #4]	@ movhi
 416              	.LM140:
 417 02cc 0C20A0C3 		movgt	r2, #12	@ movhi
 418              	.LM141:
 419 02d0 0C30A0D3 		movle	r3, #12	@ movhi
 420              	.LM142:
 421 02d4 B820C3C1 		strgth	r2, [r3, #8]	@ movhi
 422              	.LM143:
 423 02d8 B6E0C3C1 		strgth	lr, [r3, #6]	@ movhi
 424              	.LM144:
 425 02dc B6E0C2D1 		strleh	lr, [r2, #6]	@ movhi
 426              	.LM145:
 427 02e0 B830C2D1 		strleh	r3, [r2, #8]	@ movhi
 428              	.LM146:
 429 02e4 0E40A0E1 		mov	r4, lr
 430              	.LM147:
 431 02e8 0E40A0D1 		movle	r4, lr
 432              	.L45:
 433              	.LM148:
 434 02ec 0400A0E1 		mov	r0, r4
 435 02f0 1040BDE8 		ldmfd	sp!, {r4, lr}
 436 02f4 1EFF2FE1 		bx	lr
 437              	.L50:
 438              		.align	2
 439              	.L49:
 440 02f8 04000000 		.word	timeout.1935
 441 02fc 00000000 		.word	WO_SDK
 442 0300 00000000 		.word	WO_CTRL_Input
 443              	.LFE9:
 445              		.global	__floatsidf
 446              		.global	__divdf3
 447              		.global	__muldf3
 448              		.global	__fixdfsi
 449              		.align	2
 450              		.global	SDK_EXAMPLE_gps_waypoint_control
 452              	SDK_EXAMPLE_gps_waypoint_control:
 453              	.LFB7:
 454              	.LM149:
 455              		@ Function supports interworking.
 456              		@ args = 0, pretend = 0, frame = 28
 457              		@ frame_needed = 0, uses_anonymous_args = 0
 458 0304 F04F2DE9 		stmfd	sp!, {r4, r5, r6, r7, r8, r9, sl, fp, lr}
 459              	.LCFI3:
 460              	.LM150:
 461 0308 64969FE5 		ldr	r9, .L103
 462              	.LM151:
 463 030c 64169FE5 		ldr	r1, .L103+4
 464              	.LM152:
 465 0310 0000D9E5 		ldrb	r0, [r9, #0]	@ zero_extendqisi2
 466              	.LM153:
 467 0314 0130A0E3 		mov	r3, #1
 468              	.LM154:
 469 0318 0320A0E3 		mov	r2, #3
 470              	.LM155:
 471 031c 34D04DE2 		sub	sp, sp, #52
 472              	.LCFI4:
 473              	.LM156:
 474 0320 0130C1E5 		strb	r3, [r1, #1]
 475              	.LM157:
 476 0324 0020C1E5 		strb	r2, [r1, #0]
 477              	.LM158:
 478 0328 040050E3 		cmp	r0, #4
 479 032c 00F19F97 		ldrls	pc, [pc, r0, asl #2]
 480 0330 040000EA 		b	.L52
 481              		.align	2
 482              	.L58:
 483 0334 B8060000 		.word	.L53
 484 0338 C8040000 		.word	.L54
 485 033c 74060000 		.word	.L55
 486 0340 84040000 		.word	.L56
 487 0344 5C030000 		.word	.L57
 488              	.L52:
 489              	.LM159:
 490 0348 0030A0E3 		mov	r3, #0
 491              	.LVL1:
 492              	.L98:
 493 034c 0030C9E5 		strb	r3, [r9, #0]
 494              	.LVL2:
 495              	.L88:
 496              	.LM160:
 497 0350 34D08DE2 		add	sp, sp, #52
 498 0354 F04FBDE8 		ldmfd	sp!, {r4, r5, r6, r7, r8, r9, sl, fp, lr}
 499 0358 1EFF2FE1 		bx	lr
 500              	.LVL3:
 501              	.L57:
 502              	.LM161:
 503 035c 18B69FE5 		ldr	fp, .L103+8
 504 0360 00A0DBE5 		ldrb	sl, [fp, #0]	@ zero_extendqisi2
 505 0364 00005AE3 		cmp	sl, #0
 506 0368 4000001A 		bne	.L80
 507 036c 0C269FE5 		ldr	r2, .L103+12
 508 0370 0030D2E5 		ldrb	r3, [r2, #0]	@ zero_extendqisi2
 509 0374 000053E3 		cmp	r3, #0
 510 0378 3C00000A 		beq	.L80
 511              	.LM162:
 512 037c 00369FE5 		ldr	r3, .L103+16
 513 0380 B070D3E1 		ldrh	r7, [r3, #0]
 514 0384 020017E3 		tst	r7, #2
 515 0388 3400000A 		beq	.L83
 516              	.LM163:
 517 038c F4559FE5 		ldr	r5, .L103+20
 518              	.LM164:
 519 0390 F4359FE5 		ldr	r3, .L103+24
 520              	.LM165:
 521 0394 64C0A0E3 		mov	ip, #100
 522              	.LM166:
 523 0398 246093E5 		ldr	r6, [r3, #36]
 524              	.LM167:
 525 039c 844093E5 		ldr	r4, [r3, #132]
 526              	.LM168:
 527 03a0 E8159FE5 		ldr	r1, .L103+28
 528              	.LM169:
 529 03a4 05C0C5E5 		strb	ip, [r5, #5]
 530              	.LM170:
 531 03a8 BBEEA0E3 		mov	lr, #2992
 532              	.LM171:
 533 03ac 4DC04CE2 		sub	ip, ip, #77
 534              	.LM172:
 535 03b0 08E08EE2 		add	lr, lr, #8
 536              	.LM173:
 537 03b4 0180A0E3 		mov	r8, #1
 538              	.LM174:
 539 03b8 04C0C5E5 		strb	ip, [r5, #4]
 540              	.LM175:
 541 03bc 19CEA0E3 		mov	ip, #400	@ movhi
 542              	.LM176:
 543 03c0 0C0091E8 		ldmia	r1, {r2-r3}
 544              	.LM177:
 545 03c4 B6C0C5E1 		strh	ip, [r5, #6]	@ movhi
 546              	.LM178:
 547 03c8 B8E0C5E1 		strh	lr, [r5, #8]	@ movhi
 548              	.LM179:
 549 03cc 146085E5 		str	r6, [r5, #20]
 550              	.LM180:
 551 03d0 184085E5 		str	r4, [r5, #24]
 552              	.LM181:
 553 03d4 B8059FE5 		ldr	r0, .L103+32
 554 03d8 0010A0E3 		mov	r1, #0
 555              	.LM182:
 556 03dc 008085E5 		str	r8, [r5, #0]
 557              	.LM183:
 558 03e0 FEFFFFEB 		bl	__muldf3
 559 03e4 FEFFFFEB 		bl	__fixdfsi
 560 03e8 20008DE5 		str	r0, [sp, #32]
 561 03ec 20E09DE5 		ldr	lr, [sp, #32]
 562              	.LM184:
 563 03f0 A0159FE5 		ldr	r1, .L103+36
 564              	.LM185:
 565 03f4 0CE085E5 		str	lr, [r5, #12]
 566              	.LM186:
 567 03f8 0C0091E8 		ldmia	r1, {r2-r3}
 568 03fc 90059FE5 		ldr	r0, .L103+32
 569 0400 0010A0E3 		mov	r1, #0
 570 0404 FEFFFFEB 		bl	__muldf3
 571 0408 FEFFFFEB 		bl	__fixdfsi
 572              	.LM187:
 573 040c 88259FE5 		ldr	r2, .L103+40
 574 0410 0030D2E5 		ldrb	r3, [r2, #0]	@ zero_extendqisi2
 575              	.LM188:
 576 0414 196E86E2 		add	r6, r6, #400
 577 0418 20109DE5 		ldr	r1, [sp, #32]
 578              	.LM189:
 579 041c 083083E0 		add	r3, r3, r8
 580              	.LM190:
 581 0420 064084E0 		add	r4, r4, r6
 582              	.LM191:
 583 0424 0030C2E5 		strb	r3, [r2, #0]
 584              	.LM192:
 585 0428 014084E0 		add	r4, r4, r1
 586              	.LM193:
 587 042c 4C259FE5 		ldr	r2, .L103+12
 588              	.LM194:
 589 0430 494C44E2 		sub	r4, r4, #18688
 590 0434 224044E2 		sub	r4, r4, #34
 591              	.LM195:
 592 0438 00A0C2E5 		strb	sl, [r2, #0]
 593              	.LM196:
 594 043c 5C359FE5 		ldr	r3, .L103+44
 595              	.LM197:
 596 0440 5C259FE5 		ldr	r2, .L103+48
 597              	.LM198:
 598 0444 044080E0 		add	r4, r0, r4
 599 0448 BA40C5E1 		strh	r4, [r5, #10]	@ movhi
 600              	.LM199:
 601 044c 0080CBE5 		strb	r8, [fp, #0]
 602              	.LM200:
 603 0450 0080C3E5 		strb	r8, [r3, #0]
 604              	.LM201:
 605 0454 00A0C2E5 		strb	sl, [r2, #0]
 606              	.LM202:
 607 0458 100085E5 		str	r0, [r5, #16]
 608              	.LM203:
 609 045c 00A0C9E5 		strb	sl, [r9, #0]
 610              	.L83:
 611              	.LM204:
 612 0460 080017E3 		tst	r7, #8
 613              	.LM205:
 614 0464 38359F15 		ldrne	r3, .L103+48
 615              	.LM206:
 616 0468 00A0C915 		strneb	sl, [r9, #0]
 617              	.LM207:
 618 046c 00A0C315 		strneb	sl, [r3, #0]
 619              	.L80:
 620              	.LM208:
 621 0470 14459FE5 		ldr	r4, .L103+24
 622 0474 B831D4E1 		ldrh	r3, [r4, #24]
 623 0478 190D53E3 		cmp	r3, #1600
 624 047c 0C00003A 		bcc	.L99
 625 0480 B2FFFFEA 		b	.L88
 626              	.L56:
 627              	.LM209:
 628 0484 F0A49FE5 		ldr	sl, .L103+8
 629 0488 0080DAE5 		ldrb	r8, [sl, #0]	@ zero_extendqisi2
 630 048c 000058E3 		cmp	r8, #0
 631 0490 0300001A 		bne	.L72
 632 0494 E4B49FE5 		ldr	fp, .L103+12
 633 0498 0030DBE5 		ldrb	r3, [fp, #0]	@ zero_extendqisi2
 634 049c 000053E3 		cmp	r3, #0
 635 04a0 8F00001A 		bne	.L101
 636              	.LVL4:
 637              	.L72:
 638              	.LM210:
 639 04a4 E0149FE5 		ldr	r1, .L103+24
 640 04a8 B831D1E1 		ldrh	r3, [r1, #24]
 641 04ac 190D53E3 		cmp	r3, #1600
 642 04b0 A6FFFF2A 		bcs	.L88
 643              	.L99:
 644              	.LM211:
 645 04b4 E8349FE5 		ldr	r3, .L103+48
 646 04b8 0030D3E5 		ldrb	r3, [r3, #0]	@ zero_extendqisi2
 647 04bc 000053E3 		cmp	r3, #0
 648 04c0 A1FFFF0A 		beq	.L98
 649 04c4 A1FFFFEA 		b	.L88
 650              	.LVL5:
 651              	.L54:
 652              	.LM212:
 653 04c8 BC149FE5 		ldr	r1, .L103+24
 654 04cc B831D1E1 		ldrh	r3, [r1, #24]
 655 04d0 960E53E3 		cmp	r3, #2400
 656 04d4 0300008A 		bhi	.L62
 657 04d8 C4349FE5 		ldr	r3, .L103+48
 658 04dc 0020D3E5 		ldrb	r2, [r3, #0]	@ zero_extendqisi2
 659 04e0 000052E3 		cmp	r2, #0
 660 04e4 99FFFF0A 		beq	.L88
 661              	.L62:
 662              	.LBB2:
 663              	.LM213:
 664 04e8 98649FE5 		ldr	r6, .L103+20
 665              	.LM214:
 666 04ec 84C091E5 		ldr	ip, [r1, #132]
 667              	.LM215:
 668 04f0 241091E5 		ldr	r1, [r1, #36]
 669              	.LM216:
 670 04f4 AC449FE5 		ldr	r4, .L103+52
 671              	.LM217:
 672 04f8 6430A0E3 		mov	r3, #100
 673              	.LM218:
 674 04fc BB2EA0E3 		mov	r2, #2992
 675 0500 082082E2 		add	r2, r2, #8
 676              	.LM219:
 677 0504 01A0A0E3 		mov	sl, #1
 678              	.LM220:
 679 0508 0530C6E5 		strb	r3, [r6, #5]
 680              	.LM221:
 681 050c 141086E5 		str	r1, [r6, #20]
 682              	.LM222:
 683 0510 4D3043E2 		sub	r3, r3, #77
 684              	.LM223:
 685 0514 191EA0E3 		mov	r1, #400	@ movhi
 686              	.LM224:
 687 0518 000094E5 		ldr	r0, [r4, #0]
 688              	.LM225:
 689 051c 18C086E5 		str	ip, [r6, #24]
 690              	.LM226:
 691 0520 B820C6E1 		strh	r2, [r6, #8]	@ movhi
 692              	.LM227:
 693 0524 0430C6E5 		strb	r3, [r6, #4]
 694              	.LM228:
 695 0528 B610C6E1 		strh	r1, [r6, #6]	@ movhi
 696              	.LM229:
 697 052c 00A086E5 		str	sl, [r6, #0]
 698              	.LM230:
 699 0530 FEFFFFEB 		bl	__floatsidf
 700 0534 58249FE5 		ldr	r2, .L103+32
 701 0538 0030A0E3 		mov	r3, #0
 702 053c FEFFFFEB 		bl	__divdf3
 703 0540 18008DE5 		str	r0, [sp, #24]
 704 0544 1C108DE5 		str	r1, [sp, #28]
 705 0548 48349FE5 		ldr	r3, .L103+36
 706              	.LM231:
 707 054c 040094E5 		ldr	r0, [r4, #4]
 708              	.LM232:
 709 0550 18408DE2 		add	r4, sp, #24
 710 0554 300094E8 		ldmia	r4, {r4-r5}
 711 0558 300083E8 		stmia	r3, {r4-r5}
 712              	.LM233:
 713 055c FEFFFFEB 		bl	__floatsidf
 714 0560 2C249FE5 		ldr	r2, .L103+32
 715 0564 0030A0E3 		mov	r3, #0
 716 0568 FEFFFFEB 		bl	__divdf3
 717 056c 1CC49FE5 		ldr	ip, .L103+28
 718 0570 0040A0E1 		mov	r4, r0
 719 0574 0150A0E1 		mov	r5, r1
 720 0578 30008CE8 		stmia	ip, {r4-r5}
 721              	.LM234:
 722 057c 0420A0E1 		mov	r2, r4
 723 0580 0530A0E1 		mov	r3, r5
 724 0584 0040A0E3 		mov	r4, #0
 725 0588 0050A0E3 		mov	r5, #0
 726 058c 30008DE8 		stmia	sp, {r4-r5}
 727 0590 0141A0E3 		mov	r4, #1073741824
 728 0594 24C08DE2 		add	ip, sp, #36
 729 0598 2CE08DE2 		add	lr, sp, #44
 730 059c 18008DE2 		add	r0, sp, #24
 731 05a0 030090E8 		ldmia	r0, {r0-r1}
 732 05a4 2E4884E2 		add	r4, r4, #3014656
 733 05a8 0050A0E3 		mov	r5, #0
 734 05ac 14C08DE5 		str	ip, [sp, #20]
 735 05b0 10E08DE5 		str	lr, [sp, #16]
 736 05b4 08408DE5 		str	r4, [sp, #8]
 737 05b8 0C508DE5 		str	r5, [sp, #12]
 738 05bc FEFFFFEB 		bl	xy2latlon
 739              	.LVL6:
 740              	.LM235:
 741 05c0 24208DE2 		add	r2, sp, #36
 742 05c4 0C0092E8 		ldmia	r2, {r2-r3}
 743 05c8 C4039FE5 		ldr	r0, .L103+32
 744 05cc 0010A0E3 		mov	r1, #0
 745 05d0 FEFFFFEB 		bl	__muldf3
 746 05d4 FEFFFFEB 		bl	__fixdfsi
 747 05d8 0040A0E1 		mov	r4, r0
 748              	.LVL7:
 749              	.LM236:
 750 05dc 2C208DE2 		add	r2, sp, #44
 751 05e0 0C0092E8 		ldmia	r2, {r2-r3}
 752 05e4 A8039FE5 		ldr	r0, .L103+32
 753 05e8 0010A0E3 		mov	r1, #0
 754              	.LM237:
 755 05ec 0C4086E5 		str	r4, [r6, #12]
 756              	.LM238:
 757 05f0 FEFFFFEB 		bl	__muldf3
 758 05f4 FEFFFFEB 		bl	__fixdfsi
 759              	.LM239:
 760 05f8 B620D6E1 		ldrh	r2, [r6, #6]
 761 05fc 143096E5 		ldr	r3, [r6, #20]
 762 0600 181096E5 		ldr	r1, [r6, #24]
 763 0604 023083E0 		add	r3, r3, r2
 764 0608 031081E0 		add	r1, r1, r3
 765 060c 05C0D6E5 		ldrb	ip, [r6, #5]	@ zero_extendqisi2
 766 0610 041081E0 		add	r1, r1, r4
 767 0614 0430D6E5 		ldrb	r3, [r6, #4]	@ zero_extendqisi2
 768 0618 01C08CE0 		add	ip, ip, r1
 769 061c B820D6E1 		ldrh	r2, [r6, #8]
 770 0620 001096E5 		ldr	r1, [r6, #0]
 771 0624 0C3083E0 		add	r3, r3, ip
 772 0628 022080E0 		add	r2, r0, r2
 773 062c 553C43E2 		sub	r3, r3, #21760
 774 0630 012082E0 		add	r2, r2, r1
 775 0634 563043E2 		sub	r3, r3, #86
 776 0638 032082E0 		add	r2, r2, r3
 777              	.LM240:
 778 063c 38339FE5 		ldr	r3, .L103+8
 779              	.LM241:
 780 0640 BA20C6E1 		strh	r2, [r6, #10]	@ movhi
 781              	.LM242:
 782 0644 50239FE5 		ldr	r2, .L103+40
 783              	.LM243:
 784 0648 0010A0E3 		mov	r1, #0
 785              	.LM244:
 786 064c 00A0C3E5 		strb	sl, [r3, #0]
 787              	.LM245:
 788 0650 0230A0E3 		mov	r3, #2
 789              	.LM246:
 790 0654 0010C2E5 		strb	r1, [r2, #0]
 791              	.LM247:
 792 0658 0030C9E5 		strb	r3, [r9, #0]
 793              	.LM248:
 794 065c 1C239FE5 		ldr	r2, .L103+12
 795              	.LM249:
 796 0660 38339FE5 		ldr	r3, .L103+44
 797              	.LM250:
 798 0664 0010C2E5 		strb	r1, [r2, #0]
 799              	.LM251:
 800 0668 00A0C3E5 		strb	sl, [r3, #0]
 801              	.LM252:
 802 066c 100086E5 		str	r0, [r6, #16]
 803 0670 36FFFFEA 		b	.L88
 804              	.LVL8:
 805              	.L55:
 806              	.LBE2:
 807              	.LM253:
 808 0674 00A39FE5 		ldr	sl, .L103+8
 809 0678 0080DAE5 		ldrb	r8, [sl, #0]	@ zero_extendqisi2
 810 067c 000058E3 		cmp	r8, #0
 811 0680 87FFFF1A 		bne	.L72
 812 0684 F4B29FE5 		ldr	fp, .L103+12
 813 0688 0030DBE5 		ldrb	r3, [fp, #0]	@ zero_extendqisi2
 814 068c 000053E3 		cmp	r3, #0
 815 0690 83FFFF0A 		beq	.L72
 816              	.LM254:
 817 0694 E8529FE5 		ldr	r5, .L103+16
 818 0698 B0C0D5E1 		ldrh	ip, [r5, #0]
 819 069c 02001CE3 		tst	ip, #2
 820 06a0 6400001A 		bne	.L102
 821              	.LVL9:
 822              	.L75:
 823              	.LM255:
 824 06a4 08001CE3 		tst	ip, #8
 825              	.LM256:
 826 06a8 F4329F15 		ldrne	r3, .L103+48
 827              	.LM257:
 828 06ac 0080C915 		strneb	r8, [r9, #0]
 829              	.LM258:
 830 06b0 0080C315 		strneb	r8, [r3, #0]
 831 06b4 7AFFFFEA 		b	.L72
 832              	.LVL10:
 833              	.L53:
 834              	.LM259:
 835 06b8 CC329FE5 		ldr	r3, .L103+24
 836 06bc B821D3E1 		ldrh	r2, [r3, #24]
 837 06c0 190D52E3 		cmp	r2, #1600
 838 06c4 0300003A 		bcc	.L59
 839 06c8 D4329FE5 		ldr	r3, .L103+48
 840 06cc 0020D3E5 		ldrb	r2, [r3, #0]	@ zero_extendqisi2
 841 06d0 000052E3 		cmp	r2, #0
 842 06d4 1DFFFF0A 		beq	.L88
 843              	.L59:
 844              	.LM260:
 845 06d8 0130A0E3 		mov	r3, #1
 846 06dc 0030C9E5 		strb	r3, [r9, #0]
 847 06e0 1AFFFFEA 		b	.L88
 848              	.L101:
 849              	.LM261:
 850 06e4 98229FE5 		ldr	r2, .L103+16
 851 06e8 B0C0D2E1 		ldrh	ip, [r2, #0]
 852 06ec 02001CE3 		tst	ip, #2
 853 06f0 EBFFFF0A 		beq	.L75
 854              	.LBB3:
 855              	.LM262:
 856 06f4 9C329FE5 		ldr	r3, .L103+36
 857 06f8 90C29FE5 		ldr	ip, .L103+28
 858              	.LM263:
 859 06fc 88629FE5 		ldr	r6, .L103+24
 860              	.LM264:
 861 0700 80429FE5 		ldr	r4, .L103+20
 862              	.LM265:
 863 0704 030093E8 		ldmia	r3, {r0-r1}
 864              	.LM266:
 865 0708 245096E5 		ldr	r5, [r6, #36]
 866              	.LM267:
 867 070c 0C009CE8 		ldmia	ip, {r2-r3}
 868              	.LM268:
 869 0710 BBEEA0E3 		mov	lr, #2992
 870              	.LM269:
 871 0714 64C0A0E3 		mov	ip, #100
 872              	.LM270:
 873 0718 846096E5 		ldr	r6, [r6, #132]
 874              	.LM271:
 875 071c 05C0C4E5 		strb	ip, [r4, #5]
 876              	.LM272:
 877 0720 08E08EE2 		add	lr, lr, #8
 878              	.LM273:
 879 0724 4DC04CE2 		sub	ip, ip, #77
 880              	.LM274:
 881 0728 B8E0C4E1 		strh	lr, [r4, #8]	@ movhi
 882              	.LM275:
 883 072c 04C0C4E5 		strb	ip, [r4, #4]
 884              	.LM276:
 885 0730 145084E5 		str	r5, [r4, #20]
 886              	.LM277:
 887 0734 2CC08DE2 		add	ip, sp, #44
 888 0738 24E08DE2 		add	lr, sp, #36
 889 073c 0151A0E3 		mov	r5, #1073741824
 890              	.LM278:
 891 0740 186084E5 		str	r6, [r4, #24]
 892              	.LM279:
 893 0744 2E5885E2 		add	r5, r5, #3014656
 894 0748 10C08DE5 		str	ip, [sp, #16]
 895 074c 14E08DE5 		str	lr, [sp, #20]
 896              	.LM280:
 897 0750 19CEA0E3 		mov	ip, #400	@ movhi
 898              	.LM281:
 899 0754 01E0A0E3 		mov	lr, #1
 900              	.LM282:
 901 0758 0060A0E3 		mov	r6, #0
 902              	.LM283:
 903 075c B6C0C4E1 		strh	ip, [r4, #6]	@ movhi
 904              	.LM284:
 905 0760 00E084E5 		str	lr, [r4, #0]
 906              	.LM285:
 907 0764 60008DE8 		stmia	sp, {r5-r6}
 908 0768 0050A0E3 		mov	r5, #0
 909 076c 0060A0E3 		mov	r6, #0
 910 0770 08508DE5 		str	r5, [sp, #8]
 911 0774 0C608DE5 		str	r6, [sp, #12]
 912 0778 FEFFFFEB 		bl	xy2latlon
 913              	.LVL11:
 914              	.LM286:
 915 077c 24208DE2 		add	r2, sp, #36
 916 0780 0C0092E8 		ldmia	r2, {r2-r3}
 917 0784 08029FE5 		ldr	r0, .L103+32
 918 0788 0010A0E3 		mov	r1, #0
 919 078c FEFFFFEB 		bl	__muldf3
 920 0790 FEFFFFEB 		bl	__fixdfsi
 921 0794 0050A0E1 		mov	r5, r0
 922              	.LVL12:
 923              	.LM287:
 924 0798 2C208DE2 		add	r2, sp, #44
 925 079c 0C0092E8 		ldmia	r2, {r2-r3}
 926              	.LM288:
 927 07a0 0C5084E5 		str	r5, [r4, #12]
 928              	.LM289:
 929 07a4 E8019FE5 		ldr	r0, .L103+32
 930 07a8 0010A0E3 		mov	r1, #0
 931 07ac FEFFFFEB 		bl	__muldf3
 932 07b0 FEFFFFEB 		bl	__fixdfsi
 933              	.LM290:
 934 07b4 B610D4E1 		ldrh	r1, [r4, #6]
 935 07b8 143094E5 		ldr	r3, [r4, #20]
 936 07bc 182094E5 		ldr	r2, [r4, #24]
 937 07c0 013083E0 		add	r3, r3, r1
 938 07c4 032082E0 		add	r2, r2, r3
 939 07c8 05C0D4E5 		ldrb	ip, [r4, #5]	@ zero_extendqisi2
 940 07cc 052082E0 		add	r2, r2, r5
 941 07d0 0410D4E5 		ldrb	r1, [r4, #4]	@ zero_extendqisi2
 942 07d4 02C08CE0 		add	ip, ip, r2
 943 07d8 B830D4E1 		ldrh	r3, [r4, #8]
 944              	.LM291:
 945 07dc B8519FE5 		ldr	r5, .L103+40
 946              	.LM292:
 947 07e0 0C1081E0 		add	r1, r1, ip
 948 07e4 00E094E5 		ldr	lr, [r4, #0]
 949 07e8 033080E0 		add	r3, r0, r3
 950 07ec 551C41E2 		sub	r1, r1, #21760
 951              	.LM293:
 952 07f0 0020D5E5 		ldrb	r2, [r5, #0]	@ zero_extendqisi2
 953              	.LM294:
 954 07f4 0E3083E0 		add	r3, r3, lr
 955 07f8 561041E2 		sub	r1, r1, #86
 956 07fc 80619FE5 		ldr	r6, .L103+16
 957 0800 013083E0 		add	r3, r3, r1
 958              	.LM295:
 959 0804 012082E2 		add	r2, r2, #1
 960              	.LM296:
 961 0808 BA30C4E1 		strh	r3, [r4, #10]	@ movhi
 962 080c B0C0D6E1 		ldrh	ip, [r6, #0]
 963              	.LM297:
 964 0810 88319FE5 		ldr	r3, .L103+44
 965              	.LM298:
 966 0814 01E0A0E3 		mov	lr, #1
 967              	.LM299:
 968 0818 0020C5E5 		strb	r2, [r5, #0]
 969              	.LM300:
 970 081c 0420A0E3 		mov	r2, #4
 971              	.LM301:
 972 0820 00E0CAE5 		strb	lr, [sl, #0]
 973              	.LM302:
 974 0824 0080CBE5 		strb	r8, [fp, #0]
 975              	.LM303:
 976 0828 00E0C3E5 		strb	lr, [r3, #0]
 977              	.LM304:
 978 082c 0020C9E5 		strb	r2, [r9, #0]
 979              	.LM305:
 980 0830 100084E5 		str	r0, [r4, #16]
 981 0834 9AFFFFEA 		b	.L75
 982              	.LVL13:
 983              	.L102:
 984              	.LBE3:
 985              	.LBB4:
 986              	.LM306:
 987 0838 58319FE5 		ldr	r3, .L103+36
 988 083c 4CC19FE5 		ldr	ip, .L103+28
 989              	.LM307:
 990 0840 40419FE5 		ldr	r4, .L103+20
 991              	.LM308:
 992 0844 40619FE5 		ldr	r6, .L103+24
 993              	.LM309:
 994 0848 030093E8 		ldmia	r3, {r0-r1}
 995              	.LM310:
 996 084c BBEEA0E3 		mov	lr, #2992
 997              	.LM311:
 998 0850 0C009CE8 		ldmia	ip, {r2-r3}
 999              	.LM312:
 1000 0854 64C0A0E3 		mov	ip, #100
 1001              	.LM313:
 1002 0858 245096E5 		ldr	r5, [r6, #36]
 1003              	.LM314:
 1004 085c 05C0C4E5 		strb	ip, [r4, #5]
 1005              	.LM315:
 1006 0860 846096E5 		ldr	r6, [r6, #132]
 1007              	.LM316:
 1008 0864 08E08EE2 		add	lr, lr, #8
 1009              	.LM317:
 1010 0868 4DC04CE2 		sub	ip, ip, #77
 1011              	.LM318:
 1012 086c B8E0C4E1 		strh	lr, [r4, #8]	@ movhi
 1013              	.LM319:
 1014 0870 04C0C4E5 		strb	ip, [r4, #4]
 1015              	.LM320:
 1016 0874 2CE08DE2 		add	lr, sp, #44
 1017 0878 24C08DE2 		add	ip, sp, #36
 1018              	.LM321:
 1019 087c 145084E5 		str	r5, [r4, #20]
 1020              	.LM322:
 1021 0880 186084E5 		str	r6, [r4, #24]
 1022              	.LM323:
 1023 0884 0151A0E3 		mov	r5, #1073741824
 1024 0888 10C08DE5 		str	ip, [sp, #16]
 1025 088c 14E08DE5 		str	lr, [sp, #20]
 1026              	.LM324:
 1027 0890 19CEA0E3 		mov	ip, #400	@ movhi
 1028              	.LM325:
 1029 0894 01E0A0E3 		mov	lr, #1
 1030              	.LM326:
 1031 0898 B6C0C4E1 		strh	ip, [r4, #6]	@ movhi
 1032              	.LM327:
 1033 089c 00E084E5 		str	lr, [r4, #0]
 1034              	.LM328:
 1035 08a0 2E5885E2 		add	r5, r5, #3014656
 1036 08a4 0060A0E3 		mov	r6, #0
 1037 08a8 60008DE8 		stmia	sp, {r5-r6}
 1038 08ac 08508DE5 		str	r5, [sp, #8]
 1039 08b0 0C608DE5 		str	r6, [sp, #12]
 1040 08b4 FEFFFFEB 		bl	xy2latlon
 1041              	.LVL14:
 1042              	.LM329:
 1043 08b8 2C208DE2 		add	r2, sp, #44
 1044 08bc 0C0092E8 		ldmia	r2, {r2-r3}
 1045 08c0 CC009FE5 		ldr	r0, .L103+32
 1046 08c4 0010A0E3 		mov	r1, #0
 1047 08c8 FEFFFFEB 		bl	__muldf3
 1048 08cc FEFFFFEB 		bl	__fixdfsi
 1049 08d0 0050A0E1 		mov	r5, r0
 1050              	.LVL15:
 1051              	.LM330:
 1052 08d4 24208DE2 		add	r2, sp, #36
 1053 08d8 0C0092E8 		ldmia	r2, {r2-r3}
 1054              	.LM331:
 1055 08dc 0C5084E5 		str	r5, [r4, #12]
 1056              	.LM332:
 1057 08e0 AC009FE5 		ldr	r0, .L103+32
 1058 08e4 0010A0E3 		mov	r1, #0
 1059 08e8 FEFFFFEB 		bl	__muldf3
 1060 08ec FEFFFFEB 		bl	__fixdfsi
 1061              	.LM333:
 1062 08f0 B610D4E1 		ldrh	r1, [r4, #6]
 1063 08f4 143094E5 		ldr	r3, [r4, #20]
 1064 08f8 182094E5 		ldr	r2, [r4, #24]
 1065 08fc 013083E0 		add	r3, r3, r1
 1066 0900 032082E0 		add	r2, r2, r3
 1067 0904 05C0D4E5 		ldrb	ip, [r4, #5]	@ zero_extendqisi2
 1068 0908 052082E0 		add	r2, r2, r5
 1069 090c 0410D4E5 		ldrb	r1, [r4, #4]	@ zero_extendqisi2
 1070 0910 02C08CE0 		add	ip, ip, r2
 1071 0914 B830D4E1 		ldrh	r3, [r4, #8]
 1072              	.LM334:
 1073 0918 7C509FE5 		ldr	r5, .L103+40
 1074              	.LM335:
 1075 091c 0C1081E0 		add	r1, r1, ip
 1076 0920 00E094E5 		ldr	lr, [r4, #0]
 1077 0924 033080E0 		add	r3, r0, r3
 1078 0928 551C41E2 		sub	r1, r1, #21760
 1079              	.LM336:
 1080 092c 0020D5E5 		ldrb	r2, [r5, #0]	@ zero_extendqisi2
 1081              	.LM337:
 1082 0930 0E3083E0 		add	r3, r3, lr
 1083 0934 561041E2 		sub	r1, r1, #86
 1084 0938 44609FE5 		ldr	r6, .L103+16
 1085 093c 013083E0 		add	r3, r3, r1
 1086              	.LM338:
 1087 0940 012082E2 		add	r2, r2, #1
 1088              	.LM339:
 1089 0944 BA30C4E1 		strh	r3, [r4, #10]	@ movhi
 1090 0948 B0C0D6E1 		ldrh	ip, [r6, #0]
 1091              	.LM340:
 1092 094c 4C309FE5 		ldr	r3, .L103+44
 1093              	.LM341:
 1094 0950 01E0A0E3 		mov	lr, #1
 1095              	.LM342:
 1096 0954 0020C5E5 		strb	r2, [r5, #0]
 1097              	.LM343:
 1098 0958 0320A0E3 		mov	r2, #3
 1099              	.LM344:
 1100 095c 00E0CAE5 		strb	lr, [sl, #0]
 1101              	.LM345:
 1102 0960 0080CBE5 		strb	r8, [fp, #0]
 1103              	.LM346:
 1104 0964 00E0C3E5 		strb	lr, [r3, #0]
 1105              	.LM347:
 1106 0968 0020C9E5 		strb	r2, [r9, #0]
 1107              	.LM348:
 1108 096c 100084E5 		str	r0, [r4, #16]
 1109 0970 4BFFFFEA 		b	.L75
 1110              	.L104:
 1111              		.align	2
 1112              	.L103:
 1113 0974 1C000000 		.word	wpExampleState.1835
 1114 0978 00000000 		.word	WO_SDK
 1115 097c 00000000 		.word	wpCtrlWpCmdUpdated
 1116 0980 00000000 		.word	wpCtrlAckTrigger
 1117 0984 00000000 		.word	wpCtrlNavStatus
 1118 0988 00000000 		.word	wpToLL
 1119 098c 00000000 		.word	RO_ALL_Data
 1120 0990 0C000000 		.word	originLon.1837
 1121 0994 D0126341 		.word	1097011920
 1122 0998 14000000 		.word	originLat.1836
 1123 099c 00000000 		.word	wpExampleWpNr
 1124 09a0 00000000 		.word	wpCtrlWpCmd
 1125 09a4 00000000 		.word	wpExampleActive
 1126 09a8 00000000 		.word	GPS_Data
 1127              	.LBE4:
 1128              	.LFE7:
 1130              		.align	2
 1131              		.global	SDK_mainloop
 1133              	SDK_mainloop:
 1134              	.LFB2:
 1135              	.LM349:
 1136              		@ Function supports interworking.
 1137              		@ args = 0, pretend = 0, frame = 0
 1138              		@ frame_needed = 0, uses_anonymous_args = 0
 1139 09ac 04E02DE5 		str	lr, [sp, #-4]!
 1140              	.LCFI5:
 1141              	.LM350:
 1142 09b0 FEFFFFEB 		bl	SDK_jetiAscTecExampleRun
 1143              	.LM351:
 1144 09b4 18309FE5 		ldr	r3, .L110
 1145 09b8 0020D3E5 		ldrb	r2, [r3, #0]	@ zero_extendqisi2
 1146 09bc 000052E3 		cmp	r2, #0
 1147 09c0 0100001A 		bne	.L109
 1148              	.LM352:
 1149 09c4 04E09DE4 		ldr	lr, [sp], #4
 1150 09c8 1EFF2FE1 		bx	lr
 1151              	.L109:
 1152 09cc 04E09DE4 		ldr	lr, [sp], #4
 1153              	.LM353:
 1154 09d0 FEFFFFEA 		b	SDK_EXAMPLE_gps_waypoint_control
 1155              	.L111:
 1156              		.align	2
 1157              	.L110:
 1158 09d4 00000000 		.word	wpExampleActive
 1159              	.LFE2:
 1161              		.global	wpExampleWpNr
 1162              		.bss
 1165              	wpExampleWpNr:
 1166 0000 00       		.space	1
 1167              		.global	wpExampleActive
 1170              	wpExampleActive:
 1171 0001 00       		.space	1
 1172              		.global	emergencyModeUpdate
 1175              	emergencyModeUpdate:
 1176 0002 00       		.space	1
 1177 0003 00       		.align	2
 1178              	timeout.1935:
 1179 0004 00000000 		.space	4
 1180              		.align	2
 1181              	timeout.1928:
 1182 0008 00000000 		.space	4
 1183              		.align	2
 1184              	originLon.1837:
 1185 000c 00000000 		.space	8
 1185      00000000 
 1186              		.align	2
 1187              	originLat.1836:
 1188 0014 00000000 		.space	8
 1188      00000000 
 1189              	wpExampleState.1835:
 1190 001c 00       		.space	1
 1191              		.comm	GPS_timeout,4,4
 1192              		.comm	SYSTEM_initialized,1,1
 1193              		.comm	WO_SDK,4,4
 1194              		.comm	RO_ALL_Data,152,4
 1195              		.comm	RO_RC_Data,16,4
 1196              		.comm	WO_Direct_Individual_Motor_Control,12,4
 1197              		.comm	WO_Direct_Motor_Control,4,4
 1198              		.comm	WO_CTRL_Input,12,4
 1199              		.comm	WO_DESIRED_Input,16,4
 1200              		.comm	WO_Feedback,8,4
 1201              		.comm	emergencyMode,1,1
 1344              	.Letext0: