   1              		.file	"sdk_telemetry.c"
   9              	.Ltext0:
  10              		.section	.rodata
  11              		.align	2
  12              	.LC0:
  13 0000 3C2D5761 		.ascii	"<-Waypoint Test  EmergencyMode->\000"
  13      79706F69 
  13      6E742054 
  13      65737420 
  13      20456D65 
  14 0021 000000   		.align	2
  15              	.LC1:
  16 0024 41736354 		.ascii	"AscTec JetiTest  EmergencyMode->\000"
  16      6563204A 
  16      65746954 
  16      65737420 
  16      20456D65 
  17 0045 000000   		.align	2
  18              	.LC2:
  19 0048 43757272 		.ascii	"Current EmMode<>Direct Landing\000"
  19      656E7420 
  19      456D4D6F 
  19      64653C3E 
  19      44697265 
  20 0067 00       		.align	2
  21              	.LC3:
  22 0068 43757272 		.ascii	"Current EmMode<>Wait&Land\000"
  22      656E7420 
  22      456D4D6F 
  22      64653C3E 
  22      57616974 
  23 0082 0000     		.align	2
  24              	.LC4:
  25 0084 43757272 		.ascii	"Current EmMode<>Come Home High\000"
  25      656E7420 
  25      456D4D6F 
  25      64653C3E 
  25      436F6D65 
  26 00a3 00       		.align	2
  27              	.LC5:
  28 00a4 43757272 		.ascii	"Current EmMode<>Come Home \000"
  28      656E7420 
  28      456D4D6F 
  28      64653C3E 
  28      436F6D65 
  29 00bf 00       		.align	2
  30              	.LC6:
  31 00c0 456D4D6F 		.ascii	"EmMode v=Set  <>Direct Landing\000"
  31      64652076 
  31      3D536574 
  31      20203C3E 
  31      44697265 
  32 00df 00       		.align	2
  33              	.LC7:
  34 00e0 456D4D6F 		.ascii	"EmMode v=Set  <>Wait&Land\000"
  34      64652076 
  34      3D536574 
  34      20203C3E 
  34      57616974 
  35 00fa 0000     		.align	2
  36              	.LC8:
  37 00fc 456D4D6F 		.ascii	"EmMode v=Set  <>Come Home     \000"
  37      64652076 
  37      3D536574 
  37      20203C3E 
  37      436F6D65 
  38 011b 00       		.align	2
  39              	.LC9:
  40 011c 456D4D6F 		.ascii	"EmMode v=Set  <>Come Home High\000"
  40      64652076 
  40      3D536574 
  40      20203C3E 
  40      436F6D65 
  41 013b 00       		.align	2
  42              	.LC10:
  43 013c 57502041 		.ascii	"WP Act. v=Stop <>WP# %2i Dist: %2im\000"
  43      63742E20 
  43      763D5374 
  43      6F70203C 
  43      3E575023 
  44              		.text
  45              		.align	2
  46              		.global	SDK_jetiAscTecExampleUpdateDisplay
  48              	SDK_jetiAscTecExampleUpdateDisplay:
  49              	.LFB2:
  50              	.LM1:
  51              		@ Function supports interworking.
  52              		@ args = 0, pretend = 0, frame = 32
  53              		@ frame_needed = 0, uses_anonymous_args = 0
  54              	.LVL0:
  55 0000 10402DE9 		stmfd	sp!, {r4, lr}
  56              	.LCFI0:
  57 0004 FF0000E2 		and	r0, r0, #255
  58 0008 20D04DE2 		sub	sp, sp, #32
  59              	.LCFI1:
  60              	.LM2:
  61 000c 060050E3 		cmp	r0, #6
  62 0010 00F19F97 		ldrls	pc, [pc, r0, asl #2]
  63 0014 100000EA 		b	.L19
  64              		.align	2
  65              	.L10:
  66 0018 68000000 		.word	.L3
  67 001c 34000000 		.word	.L4
  68 0020 E4000000 		.word	.L5
  69 0024 D8000000 		.word	.L6
  70 0028 CC000000 		.word	.L7
  71 002c C0000000 		.word	.L8
  72 0030 84000000 		.word	.L9
  73              	.L4:
  74              	.LM3:
  75 0034 E4309FE5 		ldr	r3, .L24
  76 0038 0030D3E5 		ldrb	r3, [r3, #0]	@ zero_extendqisi2
  77 003c 010053E3 		cmp	r3, #1
  78 0040 3000000A 		beq	.L21
  79              	.LM4:
  80 0044 020053E3 		cmp	r3, #2
  81 0048 3100000A 		beq	.L22
  82              	.LM5:
  83 004c 080053E3 		cmp	r3, #8
  84 0050 2900000A 		beq	.L23
  85              	.LM6:
  86 0054 C8009FE5 		ldr	r0, .L24+4
  87              	.LVL1:
  88 0058 FEFFFFEB 		bl	jetiSetTextDisplay
  89              	.LVL2:
  90              	.L19:
  91              	.LM7:
  92 005c 20D08DE2 		add	sp, sp, #32
  93 0060 1040BDE8 		ldmfd	sp!, {r4, lr}
  94 0064 1EFF2FE1 		bx	lr
  95              	.L3:
  96              	.LM8:
  97 0068 B8309FE5 		ldr	r3, .L24+8
  98 006c 0220D3E5 		ldrb	r2, [r3, #2]	@ zero_extendqisi2
  99 0070 000052E3 		cmp	r2, #0
 100 0074 1D00000A 		beq	.L11
 101              	.LM9:
 102 0078 AC009FE5 		ldr	r0, .L24+12
 103              	.LVL3:
 104 007c FEFFFFEB 		bl	jetiSetTextDisplay
 105 0080 F5FFFFEA 		b	.L19
 106              	.LVL4:
 107              	.L9:
 108              	.LM10:
 109 0084 A4309FE5 		ldr	r3, .L24+16
 110 0088 A4209FE5 		ldr	r2, .L24+20
 111 008c B010D3E1 		ldrh	r1, [r3, #0]
 112 0090 920183E0 		umull	r0, r3, r2, r1
 113              	.LVL5:
 114 0094 9C109FE5 		ldr	r1, .L24+24
 115 0098 01408DE2 		add	r4, sp, #1
 116 009c 8336A0E1 		mov	r3, r3, asl #13
 117 00a0 0020D1E5 		ldrb	r2, [r1, #0]	@ zero_extendqisi2
 118 00a4 2338A0E1 		mov	r3, r3, lsr #16
 119 00a8 0400A0E1 		mov	r0, r4
 120 00ac 88109FE5 		ldr	r1, .L24+28
 121 00b0 FEFFFFEB 		bl	sprintf
 122              	.LM11:
 123 00b4 0400A0E1 		mov	r0, r4
 124 00b8 FEFFFFEB 		bl	jetiSetTextDisplay
 125 00bc E6FFFFEA 		b	.L19
 126              	.LVL6:
 127              	.L8:
 128              	.LM12:
 129 00c0 78009FE5 		ldr	r0, .L24+32
 130              	.LVL7:
 131 00c4 FEFFFFEB 		bl	jetiSetTextDisplay
 132 00c8 E3FFFFEA 		b	.L19
 133              	.LVL8:
 134              	.L7:
 135              	.LM13:
 136 00cc 70009FE5 		ldr	r0, .L24+36
 137              	.LVL9:
 138 00d0 FEFFFFEB 		bl	jetiSetTextDisplay
 139 00d4 E0FFFFEA 		b	.L19
 140              	.LVL10:
 141              	.L6:
 142              	.LM14:
 143 00d8 68009FE5 		ldr	r0, .L24+40
 144              	.LVL11:
 145 00dc FEFFFFEB 		bl	jetiSetTextDisplay
 146 00e0 DDFFFFEA 		b	.L19
 147              	.LVL12:
 148              	.L5:
 149              	.LM15:
 150 00e4 60009FE5 		ldr	r0, .L24+44
 151              	.LVL13:
 152 00e8 FEFFFFEB 		bl	jetiSetTextDisplay
 153 00ec DAFFFFEA 		b	.L19
 154              	.LVL14:
 155              	.L11:
 156              	.LM16:
 157 00f0 58009FE5 		ldr	r0, .L24+48
 158              	.LVL15:
 159 00f4 FEFFFFEB 		bl	jetiSetTextDisplay
 160 00f8 D7FFFFEA 		b	.L19
 161              	.LVL16:
 162              	.L23:
 163              	.LM17:
 164 00fc 50009FE5 		ldr	r0, .L24+52
 165              	.LVL17:
 166 0100 FEFFFFEB 		bl	jetiSetTextDisplay
 167 0104 D4FFFFEA 		b	.L19
 168              	.LVL18:
 169              	.L21:
 170              	.LM18:
 171 0108 48009FE5 		ldr	r0, .L24+56
 172              	.LVL19:
 173 010c FEFFFFEB 		bl	jetiSetTextDisplay
 174 0110 D1FFFFEA 		b	.L19
 175              	.LVL20:
 176              	.L22:
 177              	.LM19:
 178 0114 40009FE5 		ldr	r0, .L24+60
 179              	.LVL21:
 180 0118 FEFFFFEB 		bl	jetiSetTextDisplay
 181 011c CEFFFFEA 		b	.L19
 182              	.L25:
 183              		.align	2
 184              	.L24:
 185 0120 00000000 		.word	emergencyMode
 186 0124 A4000000 		.word	.LC5
 187 0128 00000000 		.word	RO_ALL_Data
 188 012c 00000000 		.word	.LC0
 189 0130 00000000 		.word	wpCtrlDistToWp
 190 0134 CDCCCCCC 		.word	-858993459
 191 0138 00000000 		.word	wpExampleWpNr
 192 013c 3C010000 		.word	.LC10
 193 0140 1C010000 		.word	.LC9
 194 0144 FC000000 		.word	.LC8
 195 0148 E0000000 		.word	.LC7
 196 014c C0000000 		.word	.LC6
 197 0150 24000000 		.word	.LC1
 198 0154 84000000 		.word	.LC4
 199 0158 48000000 		.word	.LC2
 200 015c 68000000 		.word	.LC3
 201              	.LFE2:
 203              		.section	.rodata
 204              		.align	2
 205              	.LC11:
 206 0160 41736354 		.ascii	"AscTec SDK\000"
 206      65632053 
 206      444B00
 207 016b 00       		.align	2
 208              	.LC12:
 209 016c 41736354 		.ascii	"AscTec Example  ->more Infos\000"
 209      65632045 
 209      78616D70 
 209      6C652020 
 209      2D3E6D6F 
 210 0189 000000   		.align	2
 211              	.LC13:
 212 018c 50697463 		.ascii	"Pitch\000"
 212      6800
 213 0192 0000     		.align	2
 214              	.LC14:
 215 0194 B000     		.ascii	"\260\000"
 216 0196 0000     		.align	2
 217              	.LC15:
 218 0198 526F6C6C 		.ascii	"Roll\000"
 218      00
 219 019d 000000   		.align	2
 220              	.LC16:
 221 01a0 59617700 		.ascii	"Yaw\000"
 222              		.align	2
 223              	.LC17:
 224 01a4 48656967 		.ascii	"Height\000"
 224      687400
 225 01ab 00       		.align	2
 226              	.LC18:
 227 01ac 6D00     		.ascii	"m\000"
 228 01ae 0000     		.align	2
 229              	.LC19:
 230 01b0 466C6967 		.ascii	"FlightMode\000"
 230      68744D6F 
 230      646500
 231 01bb 00       		.align	2
 232              	.LC20:
 233 01bc 00       		.ascii	"\000"
 234 01bd 000000   		.align	2
 235              	.LC21:
 236 01c0 53706565 		.ascii	"Speed\000"
 236      6400
 237 01c6 0000     		.align	2
 238              	.LC22:
 239 01c8 6D2F7300 		.ascii	"m/s\000"
 240              		.align	2
 241              	.LC23:
 242 01cc 47505300 		.ascii	"GPS\000"
 243              		.align	2
 244              	.LC24:
 245 01d0 2500     		.ascii	"%\000"
 246 01d2 0000     		.align	2
 247              	.LC25:
 248 01d4 42415400 		.ascii	"BAT\000"
 249              		.align	2
 250              	.LC26:
 251 01d8 5600     		.ascii	"V\000"
 252 01da 0000     		.align	2
 253              	.LC27:
 254 01dc 43505520 		.ascii	"CPU Time\000"
 254      54696D65 
 254      00
 255 01e5 000000   		.align	2
 256              	.LC28:
 257 01e8 757300   		.ascii	"us\000"
 258 01eb 00       		.align	2
 259              	.LC29:
 260 01ec 4C617400 		.ascii	"Lat\000"
 261              		.align	2
 262              	.LC30:
 263 01f0 4C6F6E00 		.ascii	"Lon\000"
 264              		.align	2
 265              	.LC31:
 266 01f4 4C617452 		.ascii	"LatRem\000"
 266      656D00
 267 01fb 00       		.align	2
 268              	.LC32:
 269 01fc 4C6F6E52 		.ascii	"LonRem\000"
 269      656D00
 270 0203 00       		.text
 271              		.align	2
 272              		.global	SDK_jetiAscTecExampleInit
 274              	SDK_jetiAscTecExampleInit:
 275              	.LFB4:
 276              	.LM20:
 277              		@ Function supports interworking.
 278              		@ args = 0, pretend = 0, frame = 0
 279              		@ frame_needed = 0, uses_anonymous_args = 0
 280 0160 10402DE9 		stmfd	sp!, {r4, lr}
 281              	.LCFI2:
 282              	.LM21:
 283 0164 D0019FE5 		ldr	r0, .L28
 284              	.LM22:
 285 0168 D0419FE5 		ldr	r4, .L28+4
 286              	.LM23:
 287 016c FEFFFFEB 		bl	jetiSetDeviceName
 288              	.LM24:
 289 0170 CC019FE5 		ldr	r0, .L28+8
 290 0174 FEFFFFEB 		bl	jetiSetTextDisplay
 291              	.LM25:
 292 0178 0420A0E1 		mov	r2, r4
 293 017c C4119FE5 		ldr	r1, .L28+12
 294 0180 0000A0E3 		mov	r0, #0
 295 0184 FEFFFFEB 		bl	jetiInitValue
 296              	.LM26:
 297 0188 0210A0E3 		mov	r1, #2
 298 018c 0000A0E3 		mov	r0, #0
 299 0190 FEFFFFEB 		bl	jetiSetDecimalPoint
 300              	.LM27:
 301 0194 0420A0E1 		mov	r2, r4
 302 0198 AC119FE5 		ldr	r1, .L28+16
 303 019c 0100A0E3 		mov	r0, #1
 304 01a0 FEFFFFEB 		bl	jetiInitValue
 305              	.LM28:
 306 01a4 0210A0E3 		mov	r1, #2
 307 01a8 0100A0E3 		mov	r0, #1
 308 01ac FEFFFFEB 		bl	jetiSetDecimalPoint
 309              	.LM29:
 310 01b0 0420A0E1 		mov	r2, r4
 311 01b4 94119FE5 		ldr	r1, .L28+20
 312 01b8 0200A0E3 		mov	r0, #2
 313 01bc FEFFFFEB 		bl	jetiInitValue
 314              	.LM30:
 315 01c0 0200A0E3 		mov	r0, #2
 316 01c4 0010A0E1 		mov	r1, r0
 317 01c8 FEFFFFEB 		bl	jetiSetDecimalPoint
 318              	.LM31:
 319 01cc 80419FE5 		ldr	r4, .L28+24
 320              	.LM32:
 321 01d0 80219FE5 		ldr	r2, .L28+28
 322 01d4 80119FE5 		ldr	r1, .L28+32
 323 01d8 0300A0E3 		mov	r0, #3
 324 01dc FEFFFFEB 		bl	jetiInitValue
 325              	.LM33:
 326 01e0 0210A0E3 		mov	r1, #2
 327 01e4 0300A0E3 		mov	r0, #3
 328 01e8 FEFFFFEB 		bl	jetiSetDecimalPoint
 329              	.LM34:
 330 01ec 0420A0E1 		mov	r2, r4
 331 01f0 68119FE5 		ldr	r1, .L28+36
 332 01f4 0400A0E3 		mov	r0, #4
 333 01f8 FEFFFFEB 		bl	jetiInitValue
 334              	.LM35:
 335 01fc 60219FE5 		ldr	r2, .L28+40
 336 0200 60119FE5 		ldr	r1, .L28+44
 337 0204 0500A0E3 		mov	r0, #5
 338 0208 FEFFFFEB 		bl	jetiInitValue
 339              	.LM36:
 340 020c 0110A0E3 		mov	r1, #1
 341 0210 0500A0E3 		mov	r0, #5
 342 0214 FEFFFFEB 		bl	jetiSetDecimalPoint
 343              	.LM37:
 344 0218 4C119FE5 		ldr	r1, .L28+48
 345 021c 4C219FE5 		ldr	r2, .L28+52
 346 0220 0600A0E3 		mov	r0, #6
 347 0224 FEFFFFEB 		bl	jetiInitValue
 348              	.LM38:
 349 0228 44219FE5 		ldr	r2, .L28+56
 350 022c 44119FE5 		ldr	r1, .L28+60
 351 0230 0700A0E3 		mov	r0, #7
 352 0234 FEFFFFEB 		bl	jetiInitValue
 353              	.LM39:
 354 0238 0210A0E3 		mov	r1, #2
 355 023c 0700A0E3 		mov	r0, #7
 356 0240 FEFFFFEB 		bl	jetiSetDecimalPoint
 357              	.LM40:
 358 0244 30119FE5 		ldr	r1, .L28+64
 359 0248 30219FE5 		ldr	r2, .L28+68
 360 024c 0800A0E3 		mov	r0, #8
 361 0250 FEFFFFEB 		bl	jetiInitValue
 362              	.LM41:
 363 0254 0420A0E1 		mov	r2, r4
 364 0258 24119FE5 		ldr	r1, .L28+72
 365 025c 0900A0E3 		mov	r0, #9
 366 0260 FEFFFFEB 		bl	jetiInitValue
 367              	.LM42:
 368 0264 0420A0E1 		mov	r2, r4
 369 0268 18119FE5 		ldr	r1, .L28+76
 370 026c 0A00A0E3 		mov	r0, #10
 371 0270 FEFFFFEB 		bl	jetiInitValue
 372              	.LM43:
 373 0274 0420A0E1 		mov	r2, r4
 374 0278 0C119FE5 		ldr	r1, .L28+80
 375 027c 0B00A0E3 		mov	r0, #11
 376 0280 FEFFFFEB 		bl	jetiInitValue
 377              	.LM44:
 378 0284 0420A0E1 		mov	r2, r4
 379 0288 00119FE5 		ldr	r1, .L28+84
 380 028c 0C00A0E3 		mov	r0, #12
 381 0290 FEFFFFEB 		bl	jetiInitValue
 382              	.LM45:
 383 0294 0000A0E3 		mov	r0, #0
 384 0298 0010A0E1 		mov	r1, r0
 385 029c FEFFFFEB 		bl	jetiSetValue14B
 386              	.LM46:
 387 02a0 0010A0E3 		mov	r1, #0
 388 02a4 0100A0E3 		mov	r0, #1
 389 02a8 FEFFFFEB 		bl	jetiSetValue14B
 390              	.LM47:
 391 02ac 0010A0E3 		mov	r1, #0
 392 02b0 0200A0E3 		mov	r0, #2
 393 02b4 FEFFFFEB 		bl	jetiSetValue22B
 394              	.LM48:
 395 02b8 0010A0E3 		mov	r1, #0
 396 02bc 0300A0E3 		mov	r0, #3
 397 02c0 FEFFFFEB 		bl	jetiSetValue22B
 398              	.LM49:
 399 02c4 0010A0E3 		mov	r1, #0
 400 02c8 0400A0E3 		mov	r0, #4
 401 02cc FEFFFFEB 		bl	jetiSetValue6B
 402              	.LM50:
 403 02d0 0010A0E3 		mov	r1, #0
 404 02d4 0500A0E3 		mov	r0, #5
 405 02d8 FEFFFFEB 		bl	jetiSetValue14B
 406              	.LM51:
 407 02dc 0010A0E3 		mov	r1, #0
 408 02e0 0600A0E3 		mov	r0, #6
 409 02e4 FEFFFFEB 		bl	jetiSetValue14B
 410              	.LM52:
 411 02e8 0010A0E3 		mov	r1, #0
 412 02ec 0700A0E3 		mov	r0, #7
 413 02f0 FEFFFFEB 		bl	jetiSetValue22B
 414              	.LM53:
 415 02f4 0010A0E3 		mov	r1, #0
 416 02f8 0800A0E3 		mov	r0, #8
 417 02fc FEFFFFEB 		bl	jetiSetValue14B
 418              	.LM54:
 419 0300 0010A0E3 		mov	r1, #0
 420 0304 0900A0E3 		mov	r0, #9
 421 0308 FEFFFFEB 		bl	jetiSetValue14B
 422              	.LM55:
 423 030c 0010A0E3 		mov	r1, #0
 424 0310 0A00A0E3 		mov	r0, #10
 425 0314 FEFFFFEB 		bl	jetiSetValue14B
 426              	.LM56:
 427 0318 0010A0E3 		mov	r1, #0
 428 031c 0B00A0E3 		mov	r0, #11
 429 0320 FEFFFFEB 		bl	jetiSetValue22B
 430              	.LM57:
 431 0324 0010A0E3 		mov	r1, #0
 432 0328 0C00A0E3 		mov	r0, #12
 433 032c FEFFFFEB 		bl	jetiSetValue22B
 434              	.LM58:
 435 0330 0000A0E3 		mov	r0, #0
 436              	.LM59:
 437 0334 1040BDE8 		ldmfd	sp!, {r4, lr}
 438              	.LM60:
 439 0338 FEFFFFEA 		b	SDK_jetiAscTecExampleUpdateDisplay
 440              	.L29:
 441              		.align	2
 442              	.L28:
 443 033c 60010000 		.word	.LC11
 444 0340 94010000 		.word	.LC14
 445 0344 6C010000 		.word	.LC12
 446 0348 8C010000 		.word	.LC13
 447 034c 98010000 		.word	.LC15
 448 0350 A0010000 		.word	.LC16
 449 0354 BC010000 		.word	.LC20
 450 0358 AC010000 		.word	.LC18
 451 035c A4010000 		.word	.LC17
 452 0360 B0010000 		.word	.LC19
 453 0364 C8010000 		.word	.LC22
 454 0368 C0010000 		.word	.LC21
 455 036c CC010000 		.word	.LC23
 456 0370 D0010000 		.word	.LC24
 457 0374 D8010000 		.word	.LC26
 458 0378 D4010000 		.word	.LC25
 459 037c DC010000 		.word	.LC27
 460 0380 E8010000 		.word	.LC28
 461 0384 EC010000 		.word	.LC29
 462 0388 F0010000 		.word	.LC30
 463 038c F4010000 		.word	.LC31
 464 0390 FC010000 		.word	.LC32
 465              	.LFE4:
 467              		.align	2
 468              		.global	SDK_jetiAscTecExampleKeyChange
 470              	SDK_jetiAscTecExampleKeyChange:
 471              	.LFB3:
 472              	.LM61:
 473              		@ Function supports interworking.
 474              		@ args = 0, pretend = 0, frame = 0
 475              		@ frame_needed = 0, uses_anonymous_args = 0
 476              	.LVL22:
 477 0394 10402DE9 		stmfd	sp!, {r4, lr}
 478              	.LCFI3:
 479              	.LM62:
 480 0398 84419FE5 		ldr	r4, .L63
 481 039c 0030D4E5 		ldrb	r3, [r4, #0]	@ zero_extendqisi2
 482              	.LM63:
 483 03a0 FF0000E2 		and	r0, r0, #255
 484              	.LM64:
 485 03a4 060053E3 		cmp	r3, #6
 486 03a8 03F19F97 		ldrls	pc, [pc, r3, asl #2]
 487 03ac 0F0000EA 		b	.L31
 488              		.align	2
 489              	.L39:
 490 03b0 FC030000 		.word	.L32
 491 03b4 A4040000 		.word	.L33
 492 03b8 80040000 		.word	.L34
 493 03bc C0040000 		.word	.L35
 494 03c0 5C040000 		.word	.L36
 495 03c4 38040000 		.word	.L37
 496 03c8 14040000 		.word	.L38
 497              	.L40:
 498              	.LM65:
 499 03cc 54319FE5 		ldr	r3, .L63+4
 500 03d0 0220D3E5 		ldrb	r2, [r3, #2]	@ zero_extendqisi2
 501 03d4 000052E3 		cmp	r2, #0
 502 03d8 0400000A 		beq	.L31
 503              	.LM66:
 504 03dc 48219FE5 		ldr	r2, .L63+8
 505 03e0 0130A0E3 		mov	r3, #1
 506              	.LM67:
 507 03e4 0610A0E3 		mov	r1, #6
 508              	.LM68:
 509 03e8 0030C2E5 		strb	r3, [r2, #0]
 510              	.LM69:
 511 03ec 0010C4E5 		strb	r1, [r4, #0]
 512              	.L31:
 513              	.LM70:
 514 03f0 0000D4E5 		ldrb	r0, [r4, #0]	@ zero_extendqisi2
 515              	.LVL23:
 516              	.LM71:
 517 03f4 1040BDE8 		ldmfd	sp!, {r4, lr}
 518              	.LM72:
 519 03f8 FEFFFFEA 		b	SDK_jetiAscTecExampleUpdateDisplay
 520              	.LVL24:
 521              	.L32:
 522              	.LM73:
 523 03fc 070050E3 		cmp	r0, #7
 524 0400 F1FFFF0A 		beq	.L40
 525 0404 0E0050E3 		cmp	r0, #14
 526              	.LM74:
 527 0408 0130A003 		moveq	r3, #1
 528 040c 0030C405 		streqb	r3, [r4, #0]
 529 0410 F6FFFFEA 		b	.L31
 530              	.L38:
 531              	.LM75:
 532 0414 10219FE5 		ldr	r2, .L63+8
 533 0418 0030D2E5 		ldrb	r3, [r2, #0]	@ zero_extendqisi2
 534 041c 000053E3 		cmp	r3, #0
 535              	.LM76:
 536 0420 0030C405 		streqb	r3, [r4, #0]
 537              	.LM77:
 538 0424 0B0050E3 		cmp	r0, #11
 539              	.LM78:
 540 0428 0030A003 		moveq	r3, #0
 541              	.LM79:
 542 042c 0030C205 		streqb	r3, [r2, #0]
 543              	.LM80:
 544 0430 0030C405 		streqb	r3, [r4, #0]
 545 0434 EDFFFFEA 		b	.L31
 546              	.L37:
 547              	.LM81:
 548 0438 0B0050E3 		cmp	r0, #11
 549 043c 2600000A 		beq	.L55
 550 0440 0E0050E3 		cmp	r0, #14
 551 0444 1A00000A 		beq	.L56
 552 0448 070050E3 		cmp	r0, #7
 553 044c E7FFFF1A 		bne	.L31
 554              	.L54:
 555              	.LM82:
 556 0450 0430A0E3 		mov	r3, #4
 557 0454 0030C4E5 		strb	r3, [r4, #0]
 558 0458 E4FFFFEA 		b	.L31
 559              	.L36:
 560              	.LM83:
 561 045c 0B0050E3 		cmp	r0, #11
 562 0460 2A00000A 		beq	.L52
 563 0464 0E0050E3 		cmp	r0, #14
 564 0468 0A00000A 		beq	.L53
 565 046c 070050E3 		cmp	r0, #7
 566 0470 DEFFFF1A 		bne	.L31
 567              	.L51:
 568              	.LM84:
 569 0474 0330A0E3 		mov	r3, #3
 570 0478 0030C4E5 		strb	r3, [r4, #0]
 571 047c DBFFFFEA 		b	.L31
 572              	.L34:
 573              	.LM85:
 574 0480 0B0050E3 		cmp	r0, #11
 575 0484 1E00000A 		beq	.L46
 576 0488 0E0050E3 		cmp	r0, #14
 577 048c F8FFFF0A 		beq	.L51
 578 0490 070050E3 		cmp	r0, #7
 579 0494 D5FFFF1A 		bne	.L31
 580              	.L53:
 581              	.LM86:
 582 0498 0530A0E3 		mov	r3, #5
 583 049c 0030C4E5 		strb	r3, [r4, #0]
 584 04a0 D2FFFFEA 		b	.L31
 585              	.L33:
 586              	.LM87:
 587 04a4 070050E3 		cmp	r0, #7
 588 04a8 0D00000A 		beq	.L62
 589 04ac 0E0050E3 		cmp	r0, #14
 590 04b0 CEFFFF1A 		bne	.L31
 591              	.L56:
 592              	.LM88:
 593 04b4 0230A0E3 		mov	r3, #2
 594 04b8 0030C4E5 		strb	r3, [r4, #0]
 595 04bc CBFFFFEA 		b	.L31
 596              	.L35:
 597              	.LM89:
 598 04c0 0B0050E3 		cmp	r0, #11
 599 04c4 0900000A 		beq	.L49
 600 04c8 0E0050E3 		cmp	r0, #14
 601 04cc DFFFFF0A 		beq	.L54
 602 04d0 070050E3 		cmp	r0, #7
 603 04d4 C5FFFF1A 		bne	.L31
 604 04d8 F5FFFFEA 		b	.L56
 605              	.L55:
 606              	.LM90:
 607 04dc 0800A0E3 		mov	r0, #8
 608              	.LVL25:
 609 04e0 FEFFFFEB 		bl	SDK_SetEmergencyMode
 610              	.LVL26:
 611              	.L62:
 612              	.LM91:
 613 04e4 0030A0E3 		mov	r3, #0
 614 04e8 0030C4E5 		strb	r3, [r4, #0]
 615 04ec BFFFFFEA 		b	.L31
 616              	.L49:
 617              	.LM92:
 618 04f0 0200A0E3 		mov	r0, #2
 619              	.LVL27:
 620 04f4 FEFFFFEB 		bl	SDK_SetEmergencyMode
 621              	.LM93:
 622 04f8 0030A0E3 		mov	r3, #0
 623 04fc 0030C4E5 		strb	r3, [r4, #0]
 624 0500 BAFFFFEA 		b	.L31
 625              	.LVL28:
 626              	.L46:
 627              	.LM94:
 628 0504 0100A0E3 		mov	r0, #1
 629              	.LVL29:
 630 0508 FEFFFFEB 		bl	SDK_SetEmergencyMode
 631 050c F4FFFFEA 		b	.L62
 632              	.LVL30:
 633              	.L52:
 634              	.LM95:
 635 0510 0400A0E3 		mov	r0, #4
 636              	.LVL31:
 637 0514 FEFFFFEB 		bl	SDK_SetEmergencyMode
 638              	.LM96:
 639 0518 0030A0E3 		mov	r3, #0
 640 051c 0030C4E5 		strb	r3, [r4, #0]
 641 0520 B2FFFFEA 		b	.L31
 642              	.L64:
 643              		.align	2
 644              	.L63:
 645 0524 02000000 		.word	displayState.1988
 646 0528 00000000 		.word	RO_ALL_Data
 647 052c 00000000 		.word	wpExampleActive
 648              	.LFE3:
 650              		.align	2
 651              		.global	SDK_jetiAscTecExampleRun
 653              	SDK_jetiAscTecExampleRun:
 654              	.LFB5:
 655              	.LM97:
 656              		@ Function supports interworking.
 657              		@ args = 0, pretend = 0, frame = 0
 658              		@ frame_needed = 0, uses_anonymous_args = 0
 659 0530 F0402DE9 		stmfd	sp!, {r4, r5, r6, r7, lr}
 660              	.LCFI4:
 661              	.LM98:
 662 0534 88229FE5 		ldr	r2, .L89
 663 0538 0030D2E5 		ldrb	r3, [r2, #0]	@ zero_extendqisi2
 664 053c 000053E3 		cmp	r3, #0
 665 0540 9700000A 		beq	.L86
 666              	.L66:
 667              	.LM99:
 668 0544 7C729FE5 		ldr	r7, .L89+4
 669 0548 0000A0E3 		mov	r0, #0
 670 054c F210D7E1 		ldrsh	r1, [r7, #2]
 671 0550 FEFFFFEB 		bl	jetiSetValue14B
 672              	.LM100:
 673 0554 F410D7E1 		ldrsh	r1, [r7, #4]
 674 0558 0100A0E3 		mov	r0, #1
 675 055c FEFFFFEB 		bl	jetiSetValue14B
 676              	.LM101:
 677 0560 B610D7E1 		ldrh	r1, [r7, #6]
 678 0564 0200A0E3 		mov	r0, #2
 679 0568 FEFFFFEB 		bl	jetiSetValue22B
 680              	.LM102:
 681 056c 58529FE5 		ldr	r5, .L89+8
 682 0570 3C1097E5 		ldr	r1, [r7, #60]
 683 0574 9501C3E0 		smull	r0, r3, r5, r1
 684              	.LM103:
 685 0578 50629FE5 		ldr	r6, .L89+12
 686              	.LM104:
 687 057c C11FA0E1 		mov	r1, r1, asr #31
 688 0580 431161E0 		rsb	r1, r1, r3, asr #2
 689 0584 0300A0E3 		mov	r0, #3
 690 0588 FEFFFFEB 		bl	jetiSetValue22B
 691              	.LM105:
 692 058c 40429FE5 		ldr	r4, .L89+16
 693 0590 001096E5 		ldr	r1, [r6, #0]
 694 0594 9421C3E0 		smull	r2, r3, r4, r1
 695 0598 C11FA0E1 		mov	r1, r1, asr #31
 696 059c 431B61E0 		rsb	r1, r1, r3, asr #22
 697 05a0 0900A0E3 		mov	r0, #9
 698 05a4 FEFFFFEB 		bl	jetiSetValue14B
 699              	.LM106:
 700 05a8 041096E5 		ldr	r1, [r6, #4]
 701 05ac 9401C3E0 		smull	r0, r3, r4, r1
 702 05b0 C11FA0E1 		mov	r1, r1, asr #31
 703 05b4 431B61E0 		rsb	r1, r1, r3, asr #22
 704 05b8 0A00A0E3 		mov	r0, #10
 705 05bc FEFFFFEB 		bl	jetiSetValue14B
 706              	.LM107:
 707 05c0 002096E5 		ldr	r2, [r6, #0]
 708 05c4 9512C3E0 		smull	r1, r3, r5, r2
 709 05c8 08429FE5 		ldr	r4, .L89+20
 710 05cc C22FA0E1 		mov	r2, r2, asr #31
 711 05d0 432162E0 		rsb	r2, r2, r3, asr #2
 712 05d4 9432C0E0 		smull	r3, r0, r4, r2
 713 05d8 C21FA0E1 		mov	r1, r2, asr #31
 714 05dc 401961E0 		rsb	r1, r1, r0, asr #18
 715 05e0 813261E0 		rsb	r3, r1, r1, asl #5
 716 05e4 033363E0 		rsb	r3, r3, r3, asl #6
 717 05e8 831181E0 		add	r1, r1, r3, asl #3
 718 05ec 011342E0 		sub	r1, r2, r1, asl #6
 719 05f0 0B00A0E3 		mov	r0, #11
 720 05f4 FEFFFFEB 		bl	jetiSetValue22B
 721              	.LM108:
 722 05f8 042096E5 		ldr	r2, [r6, #4]
 723 05fc 9502C3E0 		smull	r0, r3, r5, r2
 724 0600 C22FA0E1 		mov	r2, r2, asr #31
 725 0604 432162E0 		rsb	r2, r2, r3, asr #2
 726 0608 9412C0E0 		smull	r1, r0, r4, r2
 727 060c C21FA0E1 		mov	r1, r2, asr #31
 728 0610 401961E0 		rsb	r1, r1, r0, asr #18
 729 0614 813261E0 		rsb	r3, r1, r1, asl #5
 730 0618 033363E0 		rsb	r3, r3, r3, asl #6
 731 061c 831181E0 		add	r1, r1, r3, asl #3
 732 0620 011342E0 		sub	r1, r2, r1, asl #6
 733 0624 0C00A0E3 		mov	r0, #12
 734 0628 FEFFFFEB 		bl	jetiSetValue22B
 735              	.LM109:
 736 062c B225D7E1 		ldrh	r2, [r7, #82]
 737 0630 040012E3 		tst	r2, #4
 738 0634 0200000A 		beq	.L68
 739 0638 2830D6E5 		ldrb	r3, [r6, #40]	@ zero_extendqisi2
 740 063c 030053E3 		cmp	r3, #3
 741 0640 5B00000A 		beq	.L87
 742              	.L68:
 743              	.LM110:
 744 0644 021012E2 		ands	r1, r2, #2
 745 0648 3D00000A 		beq	.L72
 746              	.LM111:
 747 064c 0110A0E3 		mov	r1, #1
 748 0650 0400A0E3 		mov	r0, #4
 749 0654 FEFFFFEB 		bl	jetiSetValue6B
 750              	.L71:
 751              	.LM112:
 752 0658 103096E5 		ldr	r3, [r6, #16]
 753 065c 930301E0 		mul	r1, r3, r3
 754 0660 0C2096E5 		ldr	r2, [r6, #12]
 755 0664 921220E0 		mla	r0, r2, r2, r1
 756 0668 FEFFFFEB 		bl	fast_sqrt
 757              	.LM113:
 758 066c 68319FE5 		ldr	r3, .L89+24
 759              	.LVL32:
 760 0670 9320C1E0 		smull	r2, r1, r3, r0
 761 0674 C00FA0E1 		mov	r0, r0, asr #31
 762              	.LVL33:
 763 0678 C11260E0 		rsb	r1, r0, r1, asr #5
 764 067c 0500A0E3 		mov	r0, #5
 765 0680 FEFFFFEB 		bl	jetiSetValue14B
 766              	.LM114:
 767 0684 2830D6E5 		ldrb	r3, [r6, #40]	@ zero_extendqisi2
 768 0688 030053E3 		cmp	r3, #3
 769              	.LM115:
 770 068c 3C219FE5 		ldr	r2, .L89+12
 771              	.LM116:
 772 0690 2E00000A 		beq	.L88
 773              	.L74:
 774              	.LM117:
 775 0694 0010A0E3 		mov	r1, #0
 776              	.LVL34:
 777              	.L78:
 778              	.LM118:
 779 0698 0600A0E3 		mov	r0, #6
 780 069c FEFFFFEB 		bl	jetiSetValue14B
 781              	.LVL35:
 782              	.LM119:
 783 06a0 FE14D7E1 		ldrsh	r1, [r7, #78]
 784 06a4 20319FE5 		ldr	r3, .L89+8
 785 06a8 9301C2E0 		smull	r0, r2, r3, r1
 786 06ac C11FA0E1 		mov	r1, r1, asr #31
 787 06b0 421161E0 		rsb	r1, r1, r2, asr #2
 788 06b4 0118A0E1 		mov	r1, r1, asl #16
 789 06b8 4118A0E1 		mov	r1, r1, asr #16
 790 06bc 0700A0E3 		mov	r0, #7
 791 06c0 FEFFFFEB 		bl	jetiSetValue22B
 792              	.LM120:
 793 06c4 BE34D7E1 		ldrh	r3, [r7, #78]
 794 06c8 4E3D43E2 		sub	r3, r3, #4992
 795 06cc 093043E2 		sub	r3, r3, #9
 796 06d0 552DA0E3 		mov	r2, #5440
 797 06d4 3A2082E2 		add	r2, r2, #58
 798 06d8 0338A0E1 		mov	r3, r3, asl #16
 799 06dc 230852E1 		cmp	r2, r3, lsr #16
 800 06e0 2B00003A 		bcc	.L80
 801              	.LM121:
 802 06e4 0010A0E3 		mov	r1, #0
 803 06e8 5500A0E3 		mov	r0, #85
 804 06ec FEFFFFEB 		bl	jetiSetAlarm
 805              	.L82:
 806              	.LM122:
 807 06f0 E8309FE5 		ldr	r3, .L89+28
 808 06f4 0800A0E3 		mov	r0, #8
 809 06f8 F211D3E1 		ldrsh	r1, [r3, #18]
 810 06fc FEFFFFEB 		bl	jetiSetValue14B
 811              	.LM123:
 812 0700 FEFFFFEB 		bl	jetiCheckForKeyChange
 813              	.LM124:
 814 0704 D8409FE5 		ldr	r4, .L89+32
 815 0708 0020D4E5 		ldrb	r2, [r4, #0]	@ zero_extendqisi2
 816 070c 012082E2 		add	r2, r2, #1
 817              	.LM125:
 818 0710 003050E2 		subs	r3, r0, #0
 819 0714 0130A013 		movne	r3, #1
 820              	.LM126:
 821 0718 FF2002E2 		and	r2, r2, #255
 822              	.LM127:
 823 071c 140052E3 		cmp	r2, #20
 824 0720 01308303 		orreq	r3, r3, #1
 825 0724 000053E3 		cmp	r3, #0
 826              	.LM128:
 827 0728 0020C4E5 		strb	r2, [r4, #0]
 828              	.LM129:
 829 072c 0200000A 		beq	.L85
 830              	.LM130:
 831 0730 FEFFFFEB 		bl	SDK_jetiAscTecExampleKeyChange
 832              	.LM131:
 833 0734 0030A0E3 		mov	r3, #0
 834 0738 0030C4E5 		strb	r3, [r4, #0]
 835              	.L85:
 836              	.LM132:
 837 073c F040BDE8 		ldmfd	sp!, {r4, r5, r6, r7, lr}
 838 0740 1EFF2FE1 		bx	lr
 839              	.L72:
 840              	.LM133:
 841 0744 0400A0E3 		mov	r0, #4
 842 0748 FEFFFFEB 		bl	jetiSetValue6B
 843 074c C1FFFFEA 		b	.L71
 844              	.L88:
 845              	.LM134:
 846 0750 243092E5 		ldr	r3, [r2, #36]
 847 0754 020053E3 		cmp	r3, #2
 848 0758 CDFFFF9A 		bls	.L74
 849 075c 182092E5 		ldr	r2, [r2, #24]
 850 0760 273CA0E3 		mov	r3, #9984
 851 0764 103083E2 		add	r3, r3, #16
 852 0768 030052E1 		cmp	r2, r3
 853 076c C8FFFF8A 		bhi	.L74
 854              	.LM135:
 855 0770 5D3E42E2 		sub	r3, r2, #1488
 856 0774 6C109FE5 		ldr	r1, .L89+36
 857 0778 0C3043E2 		sub	r3, r3, #12
 858 077c 910382E0 		umull	r0, r2, r1, r3
 859 0780 2223A0E1 		mov	r2, r2, lsr #6
 860 0784 641062E2 		rsb	r1, r2, #100
 861              	.LVL36:
 862              	.LM136:
 863 0788 640051E3 		cmp	r1, #100
 864 078c 6410A0C3 		movgt	r1, #100
 865 0790 C0FFFFEA 		b	.L78
 866              	.LVL37:
 867              	.L80:
 868              	.LM137:
 869 0794 0000A0E3 		mov	r0, #0
 870 0798 0010A0E1 		mov	r1, r0
 871 079c FEFFFFEB 		bl	jetiSetAlarm
 872 07a0 D2FFFFEA 		b	.L82
 873              	.L86:
 874              	.LM138:
 875 07a4 013083E2 		add	r3, r3, #1
 876 07a8 0030C2E5 		strb	r3, [r2, #0]
 877              	.LM139:
 878 07ac FEFFFFEB 		bl	SDK_jetiAscTecExampleInit
 879 07b0 63FFFFEA 		b	.L66
 880              	.L87:
 881              	.LM140:
 882 07b4 0210A0E3 		mov	r1, #2
 883 07b8 0400A0E3 		mov	r0, #4
 884 07bc FEFFFFEB 		bl	jetiSetValue6B
 885 07c0 A4FFFFEA 		b	.L71
 886              	.L90:
 887              		.align	2
 888              	.L89:
 889 07c4 01000000 		.word	first.2056
 890 07c8 00000000 		.word	LL_1khz_attitude_data
 891 07cc 67666666 		.word	1717986919
 892 07d0 00000000 		.word	GPS_Data
 893 07d4 6BCA5F6B 		.word	1801439851
 894 07d8 83DE1B43 		.word	1125899907
 895 07dc 1F85EB51 		.word	1374389535
 896 07e0 00000000 		.word	HL_Status
 897 07e4 00000000 		.word	jetiDisplayUpdateCnt.2057
 898 07e8 C1C0C0C0 		.word	-1061109567
 899              	.LFE5:
 901              		.bss
 902              	jetiDisplayUpdateCnt.2057:
 903 0000 00       		.space	1
 904              	first.2056:
 905 0001 00       		.space	1
 906              	displayState.1988:
 907 0002 00       		.space	1
 908              		.comm	GPS_timeout,4,4
 909              		.comm	SYSTEM_initialized,1,1
 1000              	.Letext0: