   1              		.file	"system.c"
   9              	.Ltext0:
  10              		.align	2
  11              		.global	init
  13              	init:
  14              	.LFB2:
  15              	.LM1:
  16              		@ Function supports interworking.
  17              		@ args = 0, pretend = 0, frame = 0
  18              		@ frame_needed = 1, uses_anonymous_args = 0
  19 0000 0DC0A0E1 		mov	ip, sp
  20              	.LCFI0:
  21 0004 00D82DE9 		stmfd	sp!, {fp, ip, lr, pc}
  22              	.LCFI1:
  23 0008 04B04CE2 		sub	fp, ip, #4
  24              	.LCFI2:
  25              	.LM2:
  26 000c 0E32A0E3 		mov	r3, #-536870912
  27 0010 7F3983E2 		add	r3, r3, #2080768
  28 0014 0220A0E3 		mov	r2, #2
  29 0018 002083E5 		str	r2, [r3, #0]
  30              	.LM3:
  31 001c 4E32A0E3 		mov	r3, #-536870908
  32 0020 7F3983E2 		add	r3, r3, #2080768
  33 0024 0420A0E3 		mov	r2, #4
  34 0028 002083E5 		str	r2, [r3, #0]
  35              	.LM4:
  36 002c 0E32A0E3 		mov	r3, #-536870912
  37 0030 7F3983E2 		add	r3, r3, #2080768
  38 0034 013C83E2 		add	r3, r3, #256
  39 0038 0120A0E3 		mov	r2, #1
  40 003c 002083E5 		str	r2, [r3, #0]
  41              	.LM5:
  42 0040 FEFFFFEB 		bl	pll_init
  43              	.LM6:
  44 0044 FEFFFFEB 		bl	pll_feed
  45              	.LM7:
  46 0048 FEFFFFEB 		bl	init_ports
  47              	.LM8:
  48 004c E10CA0E3 		mov	r0, #57600
  49 0050 FEFFFFEB 		bl	UARTInitialize
  50              	.LM9:
  51 0054 E10CA0E3 		mov	r0, #57600
  52 0058 FEFFFFEB 		bl	UART1Initialize
  53              	.LM10:
  54 005c FEFFFFEB 		bl	init_spi
  55              	.LM11:
  56 0060 FEFFFFEB 		bl	init_spi1
  57              	.LM12:
  58 0064 FEFFFFEB 		bl	init_timer0
  59              	.LM13:
  60 0068 FEFFFFEB 		bl	PWM_Init
  61              	.LM14:
  62 006c 3D09A0E3 		mov	r0, #999424
  63 0070 090D80E2 		add	r0, r0, #576
  64 0074 FEFFFFEB 		bl	ADCInit
  65              	.LM15:
  66 0078 FEFFFFEB 		bl	init_interrupts
  67              	.LM16:
  68 007c 0CD04BE2 		sub	sp, fp, #12
  69 0080 00689DE8 		ldmfd	sp, {fp, sp, lr}
  70 0084 1EFF2FE1 		bx	lr
  71              	.LFE2:
  73              		.align	2
  74              		.global	init_interrupts
  76              	init_interrupts:
  77              	.LFB3:
  78              	.LM17:
  79              		@ Function supports interworking.
  80              		@ args = 0, pretend = 0, frame = 0
  81              		@ frame_needed = 1, uses_anonymous_args = 0
  82 0088 0DC0A0E1 		mov	ip, sp
  83              	.LCFI3:
  84 008c 00D82DE9 		stmfd	sp!, {fp, ip, lr, pc}
  85              	.LCFI4:
  86 0090 04B04CE2 		sub	fp, ip, #4
  87              	.LCFI5:
  88              	.LM18:
  89 0094 FEFFFFEB 		bl	init_VIC
  90              	.LM19:
  91 0098 0400A0E3 		mov	r0, #4
  92 009c 80109FE5 		ldr	r1, .L5
  93 00a0 FEFFFFEB 		bl	install_irq
  94              	.LM20:
  95 00a4 0700A0E3 		mov	r0, #7
  96 00a8 78109FE5 		ldr	r1, .L5+4
  97 00ac FEFFFFEB 		bl	install_irq
  98              	.LM21:
  99 00b0 4E32A0E3 		mov	r3, #-536870908
 100 00b4 013883E2 		add	r3, r3, #65536
 101 00b8 0320A0E3 		mov	r2, #3
 102 00bc 002083E5 		str	r2, [r3, #0]
 103              	.LM22:
 104 00c0 0600A0E3 		mov	r0, #6
 105 00c4 60109FE5 		ldr	r1, .L5+8
 106 00c8 FEFFFFEB 		bl	install_irq
 107              	.LM23:
 108 00cc 0339A0E3 		mov	r3, #49152
 109 00d0 4E3283E2 		add	r3, r3, #-536870908
 110 00d4 0320A0E3 		mov	r2, #3
 111 00d8 002083E5 		str	r2, [r3, #0]
 112              	.LM24:
 113 00dc 0B00A0E3 		mov	r0, #11
 114 00e0 48109FE5 		ldr	r1, .L5+12
 115 00e4 FEFFFFEB 		bl	install_irq
 116              	.LM25:
 117 00e8 0E32A0E3 		mov	r3, #-536870912
 118 00ec 1A3983E2 		add	r3, r3, #425984
 119 00f0 143083E2 		add	r3, r3, #20
 120 00f4 0D20A0E3 		mov	r2, #13
 121 00f8 002083E5 		str	r2, [r3, #0]
 122              	.LM26:
 123 00fc 4E22A0E3 		mov	r2, #-536870908
 124 0100 1A2982E2 		add	r2, r2, #425984
 125 0104 4E32A0E3 		mov	r3, #-536870908
 126 0108 1A3983E2 		add	r3, r3, #425984
 127 010c 003093E5 		ldr	r3, [r3, #0]
 128 0110 023083E3 		orr	r3, r3, #2
 129 0114 003082E5 		str	r3, [r2, #0]
 130              	.LM27:
 131 0118 0CD04BE2 		sub	sp, fp, #12
 132 011c 00689DE8 		ldmfd	sp, {fp, sp, lr}
 133 0120 1EFF2FE1 		bx	lr
 134              	.L6:
 135              		.align	2
 136              	.L5:
 137 0124 00000000 		.word	timer0ISR
 138 0128 00000000 		.word	uart1ISR
 139 012c 00000000 		.word	uart0ISR
 140 0130 00000000 		.word	SSPHandler
 141              	.LFE3:
 143              		.align	2
 144              		.global	init_ports
 146              	init_ports:
 147              	.LFB4:
 148              	.LM28:
 149              		@ Function supports interworking.
 150              		@ args = 0, pretend = 0, frame = 0
 151              		@ frame_needed = 1, uses_anonymous_args = 0
 152 0134 0DC0A0E1 		mov	ip, sp
 153              	.LCFI6:
 154 0138 00D82DE9 		stmfd	sp!, {fp, ip, lr, pc}
 155              	.LCFI7:
 156 013c 04B04CE2 		sub	fp, ip, #4
 157              	.LCFI8:
 158              	.LM29:
 159 0140 0E32A0E3 		mov	r3, #-536870912
 160 0144 0B3983E2 		add	r3, r3, #180224
 161 0148 84209FE5 		ldr	r2, .L9
 162 014c 002083E5 		str	r2, [r3, #0]
 163              	.LM30:
 164 0150 4E32A0E3 		mov	r3, #-536870908
 165 0154 0B3983E2 		add	r3, r3, #180224
 166 0158 78209FE5 		ldr	r2, .L9+4
 167 015c 002083E5 		str	r2, [r3, #0]
 168              	.LM31:
 169 0160 0E32A0E3 		mov	r3, #-536870912
 170 0164 0B3983E2 		add	r3, r3, #180224
 171 0168 143083E2 		add	r3, r3, #20
 172 016c 0420A0E3 		mov	r2, #4
 173 0170 002083E5 		str	r2, [r3, #0]
 174              	.LM32:
 175 0174 8E22A0E3 		mov	r2, #-536870904
 176 0178 0A2982E2 		add	r2, r2, #163840
 177 017c C239A0E3 		mov	r3, #3178496
 178 0180 D23D83E2 		add	r3, r3, #13440
 179 0184 003082E5 		str	r3, [r2, #0]
 180              	.LM33:
 181 0188 4E32A0E3 		mov	r3, #-536870908
 182 018c 0A3983E2 		add	r3, r3, #163840
 183 0190 222DA0E3 		mov	r2, #2176
 184 0194 002083E5 		str	r2, [r3, #0]
 185              	.LM34:
 186 0198 0E22A0E3 		mov	r2, #-536870912
 187 019c 0A2982E2 		add	r2, r2, #163840
 188 01a0 182082E2 		add	r2, r2, #24
 189 01a4 0334A0E3 		mov	r3, #50331648
 190 01a8 033883E2 		add	r3, r3, #196608
 191 01ac 003082E5 		str	r3, [r2, #0]
 192              	.LM35:
 193 01b0 0E22A0E3 		mov	r2, #-536870912
 194 01b4 0A2982E2 		add	r2, r2, #163840
 195 01b8 142082E2 		add	r2, r2, #20
 196 01bc 0134A0E3 		mov	r3, #16777216
 197 01c0 013883E2 		add	r3, r3, #65536
 198 01c4 003082E5 		str	r3, [r2, #0]
 199              	.LM36:
 200 01c8 0CD04BE2 		sub	sp, fp, #12
 201 01cc 00689DE8 		ldmfd	sp, {fp, sp, lr}
 202 01d0 1EFF2FE1 		bx	lr
 203              	.L10:
 204              		.align	2
 205              	.L9:
 206 01d4 5515C530 		.word	818222421
 207 01d8 A8060415 		.word	352585384
 208              	.LFE4:
 210              		.align	2
 211              		.global	init_timer0
 213              	init_timer0:
 214              	.LFB5:
 215              	.LM37:
 216              		@ Function supports interworking.
 217              		@ args = 0, pretend = 0, frame = 0
 218              		@ frame_needed = 1, uses_anonymous_args = 0
 219 01dc 0DC0A0E1 		mov	ip, sp
 220              	.LCFI9:
 221 01e0 10D82DE9 		stmfd	sp!, {r4, fp, ip, lr, pc}
 222              	.LCFI10:
 223 01e4 04B04CE2 		sub	fp, ip, #4
 224              	.LCFI11:
 225              	.LM38:
 226 01e8 0139A0E3 		mov	r3, #16384
 227 01ec 8E3283E2 		add	r3, r3, #-536870904
 228 01f0 0020A0E3 		mov	r2, #0
 229 01f4 002083E5 		str	r2, [r3, #0]
 230              	.LM39:
 231 01f8 0139A0E3 		mov	r3, #16384
 232 01fc 4E3283E2 		add	r3, r3, #-536870908
 233 0200 0020A0E3 		mov	r2, #0
 234 0204 002083E5 		str	r2, [r3, #0]
 235              	.LM40:
 236 0208 0E32A0E3 		mov	r3, #-536870912
 237 020c 013983E2 		add	r3, r3, #16384
 238 0210 143083E2 		add	r3, r3, #20
 239 0214 0320A0E3 		mov	r2, #3
 240 0218 002083E5 		str	r2, [r3, #0]
 241              	.LM41:
 242 021c 0139A0E3 		mov	r3, #16384
 243 0220 CE3283E2 		add	r3, r3, #-536870900
 244 0224 0020A0E3 		mov	r2, #0
 245 0228 002083E5 		str	r2, [r3, #0]
 246              	.LM42:
 247 022c 0E32A0E3 		mov	r3, #-536870912
 248 0230 013983E2 		add	r3, r3, #16384
 249 0234 103083E2 		add	r3, r3, #16
 250 0238 0020A0E3 		mov	r2, #0
 251 023c 002083E5 		str	r2, [r3, #0]
 252              	.LM43:
 253 0240 0E42A0E3 		mov	r4, #-536870912
 254 0244 014984E2 		add	r4, r4, #16384
 255 0248 184084E2 		add	r4, r4, #24
 256 024c FEFFFFEB 		bl	peripheralClockFrequency
 257 0250 0020A0E1 		mov	r2, r0
 258 0254 24309FE5 		ldr	r3, .L13
 259 0258 921383E0 		umull	r1, r3, r2, r3
 260 025c 2333A0E1 		mov	r3, r3, lsr #6
 261 0260 003084E5 		str	r3, [r4, #0]
 262              	.LM44:
 263 0264 0139A0E3 		mov	r3, #16384
 264 0268 4E3283E2 		add	r3, r3, #-536870908
 265 026c 0120A0E3 		mov	r2, #1
 266 0270 002083E5 		str	r2, [r3, #0]
 267              	.LM45:
 268 0274 10D04BE2 		sub	sp, fp, #16
 269 0278 10689DE8 		ldmfd	sp, {r4, fp, sp, lr}
 270 027c 1EFF2FE1 		bx	lr
 271              	.L14:
 272              		.align	2
 273              	.L13:
 274 0280 D34D6210 		.word	274877907
 275              	.LFE5:
 277              		.align	2
 278              		.global	PWM_Init
 280              	PWM_Init:
 281              	.LFB6:
 282              	.LM46:
 283              		@ Function supports interworking.
 284              		@ args = 0, pretend = 0, frame = 0
 285              		@ frame_needed = 1, uses_anonymous_args = 0
 286 0284 0DC0A0E1 		mov	ip, sp
 287              	.LCFI12:
 288 0288 00D82DE9 		stmfd	sp!, {fp, ip, lr, pc}
 289              	.LCFI13:
 290 028c 04B04CE2 		sub	fp, ip, #4
 291              	.LCFI14:
 292              	.LM47:
 293 0290 4E32A0E3 		mov	r3, #-536870908
 294 0294 053983E2 		add	r3, r3, #81920
 295 0298 0220A0E3 		mov	r2, #2
 296 029c 002083E5 		str	r2, [r3, #0]
 297              	.LM48:
 298 02a0 CE32A0E3 		mov	r3, #-536870900
 299 02a4 053983E2 		add	r3, r3, #81920
 300 02a8 0020A0E3 		mov	r2, #0
 301 02ac 002083E5 		str	r2, [r3, #0]
 302              	.LM49:
 303 02b0 0E32A0E3 		mov	r3, #-536870912
 304 02b4 053983E2 		add	r3, r3, #81920
 305 02b8 143083E2 		add	r3, r3, #20
 306 02bc 0220A0E3 		mov	r2, #2
 307 02c0 002083E5 		str	r2, [r3, #0]
 308              	.LM50:
 309 02c4 0E32A0E3 		mov	r3, #-536870912
 310 02c8 053983E2 		add	r3, r3, #81920
 311 02cc 183083E2 		add	r3, r3, #24
 312 02d0 1228A0E3 		mov	r2, #1179648
 313 02d4 002083E5 		str	r2, [r3, #0]
 314              	.LM51:
 315 02d8 0E22A0E3 		mov	r2, #-536870912
 316 02dc 052982E2 		add	r2, r2, #81920
 317 02e0 442082E2 		add	r2, r2, #68
 318 02e4 563BA0E3 		mov	r3, #88064
 319 02e8 653F83E2 		add	r3, r3, #404
 320 02ec 023083E2 		add	r3, r3, #2
 321 02f0 003082E5 		str	r3, [r2, #0]
 322              	.LM52:
 323 02f4 0E32A0E3 		mov	r3, #-536870912
 324 02f8 053983E2 		add	r3, r3, #81920
 325 02fc 503083E2 		add	r3, r3, #80
 326 0300 2020A0E3 		mov	r2, #32
 327 0304 002083E5 		str	r2, [r3, #0]
 328              	.LM53:
 329 0308 0E32A0E3 		mov	r3, #-536870912
 330 030c 053983E2 		add	r3, r3, #81920
 331 0310 4C3083E2 		add	r3, r3, #76
 332 0314 7E2CA0E3 		mov	r2, #32256
 333 0318 002083E5 		str	r2, [r3, #0]
 334              	.LM54:
 335 031c 4E32A0E3 		mov	r3, #-536870908
 336 0320 053983E2 		add	r3, r3, #81920
 337 0324 0920A0E3 		mov	r2, #9
 338 0328 002083E5 		str	r2, [r3, #0]
 339              	.LM55:
 340 032c 0CD04BE2 		sub	sp, fp, #12
 341 0330 00689DE8 		ldmfd	sp, {fp, sp, lr}
 342 0334 1EFF2FE1 		bx	lr
 343              	.LFE6:
 345              		.align	2
 346              		.global	init_spi
 348              	init_spi:
 349              	.LFB7:
 350              	.LM56:
 351              		@ Function supports interworking.
 352              		@ args = 0, pretend = 0, frame = 0
 353              		@ frame_needed = 1, uses_anonymous_args = 0
 354 0338 0DC0A0E1 		mov	ip, sp
 355              	.LCFI15:
 356 033c 00D82DE9 		stmfd	sp!, {fp, ip, lr, pc}
 357              	.LCFI16:
 358 0340 04B04CE2 		sub	fp, ip, #4
 359              	.LCFI17:
 360              	.LM57:
 361 0344 CE32A0E3 		mov	r3, #-536870900
 362 0348 023883E2 		add	r3, r3, #131072
 363 034c 0420A0E3 		mov	r2, #4
 364 0350 002083E5 		str	r2, [r3, #0]
 365              	.LM58:
 366 0354 0E32A0E3 		mov	r3, #-536870912
 367 0358 023883E2 		add	r3, r3, #131072
 368 035c 2020A0E3 		mov	r2, #32
 369 0360 002083E5 		str	r2, [r3, #0]
 370              	.LM59:
 371 0364 0CD04BE2 		sub	sp, fp, #12
 372 0368 00689DE8 		ldmfd	sp, {fp, sp, lr}
 373 036c 1EFF2FE1 		bx	lr
 374              	.LFE7:
 376              		.align	2
 377              		.global	init_spi1
 379              	init_spi1:
 380              	.LFB8:
 381              	.LM60:
 382              		@ Function supports interworking.
 383              		@ args = 0, pretend = 0, frame = 4
 384              		@ frame_needed = 1, uses_anonymous_args = 0
 385 0370 0DC0A0E1 		mov	ip, sp
 386              	.LCFI18:
 387 0374 00D82DE9 		stmfd	sp!, {fp, ip, lr, pc}
 388              	.LCFI19:
 389 0378 04B04CE2 		sub	fp, ip, #4
 390              	.LCFI20:
 391 037c 04D04DE2 		sub	sp, sp, #4
 392              	.LCFI21:
 393              	.LM61:
 394 0380 0E22A0E3 		mov	r2, #-536870912
 395 0384 1A2982E2 		add	r2, r2, #425984
 396 0388 013BA0E3 		mov	r3, #1024
 397 038c 0F3083E2 		add	r3, r3, #15
 398 0390 003082E5 		str	r3, [r2, #0]
 399              	.LM62:
 400 0394 0E32A0E3 		mov	r3, #-536870912
 401 0398 1A3983E2 		add	r3, r3, #425984
 402 039c 103083E2 		add	r3, r3, #16
 403 03a0 1B20A0E3 		mov	r2, #27
 404 03a4 002083E5 		str	r2, [r3, #0]
 405              	.LM63:
 406 03a8 0030A0E3 		mov	r3, #0
 407 03ac 0E304BE5 		strb	r3, [fp, #-14]
 408 03b0 060000EA 		b	.L20
 409              	.L21:
 410              	.LM64:
 411 03b4 8E32A0E3 		mov	r3, #-536870904
 412 03b8 1A3983E2 		add	r3, r3, #425984
 413 03bc 003093E5 		ldr	r3, [r3, #0]
 414 03c0 0D304BE5 		strb	r3, [fp, #-13]
 415              	.LM65:
 416 03c4 0E305BE5 		ldrb	r3, [fp, #-14]
 417 03c8 013083E2 		add	r3, r3, #1
 418 03cc 0E304BE5 		strb	r3, [fp, #-14]
 419              	.L20:
 420 03d0 0E305BE5 		ldrb	r3, [fp, #-14]	@ zero_extendqisi2
 421 03d4 070053E3 		cmp	r3, #7
 422 03d8 F5FFFF9A 		bls	.L21
 423              	.LM66:
 424 03dc 0E32A0E3 		mov	r3, #-536870912
 425 03e0 1A3983E2 		add	r3, r3, #425984
 426 03e4 143083E2 		add	r3, r3, #20
 427 03e8 0020A0E3 		mov	r2, #0
 428 03ec 002083E5 		str	r2, [r3, #0]
 429              	.LM67:
 430 03f0 4E32A0E3 		mov	r3, #-536870908
 431 03f4 1A3983E2 		add	r3, r3, #425984
 432 03f8 0020A0E3 		mov	r2, #0
 433 03fc 002083E5 		str	r2, [r3, #0]
 434              	.LM68:
 435 0400 0CD04BE2 		sub	sp, fp, #12
 436 0404 00689DE8 		ldmfd	sp, {fp, sp, lr}
 437 0408 1EFF2FE1 		bx	lr
 438              	.LFE8:
 440              		.align	2
 441              		.global	pll_init
 443              	pll_init:
 444              	.LFB9:
 445              	.LM69:
 446              		@ Function supports interworking.
 447              		@ args = 0, pretend = 0, frame = 0
 448              		@ frame_needed = 1, uses_anonymous_args = 0
 449 040c 0DC0A0E1 		mov	ip, sp
 450              	.LCFI22:
 451 0410 00D82DE9 		stmfd	sp!, {fp, ip, lr, pc}
 452              	.LCFI23:
 453 0414 04B04CE2 		sub	fp, ip, #4
 454              	.LCFI24:
 455              	.LM70:
 456 0418 0E32A0E3 		mov	r3, #-536870912
 457 041c 7F3983E2 		add	r3, r3, #2080768
 458 0420 843083E2 		add	r3, r3, #132
 459 0424 2320A0E3 		mov	r2, #35
 460 0428 002083E5 		str	r2, [r3, #0]
 461              	.LM71:
 462 042c 0E32A0E3 		mov	r3, #-536870912
 463 0430 7F3983E2 		add	r3, r3, #2080768
 464 0434 803083E2 		add	r3, r3, #128
 465 0438 0320A0E3 		mov	r2, #3
 466 043c 002083E5 		str	r2, [r3, #0]
 467              	.LM72:
 468 0440 0CD04BE2 		sub	sp, fp, #12
 469 0444 00689DE8 		ldmfd	sp, {fp, sp, lr}
 470 0448 1EFF2FE1 		bx	lr
 471              	.LFE9:
 473              		.align	2
 474              		.global	pll_feed
 476              	pll_feed:
 477              	.LFB10:
 478              	.LM73:
 479              		@ Function supports interworking.
 480              		@ args = 0, pretend = 0, frame = 0
 481              		@ frame_needed = 1, uses_anonymous_args = 0
 482 044c 0DC0A0E1 		mov	ip, sp
 483              	.LCFI25:
 484 0450 00D82DE9 		stmfd	sp!, {fp, ip, lr, pc}
 485              	.LCFI26:
 486 0454 04B04CE2 		sub	fp, ip, #4
 487              	.LCFI27:
 488              	.LM74:
 489 0458 0E32A0E3 		mov	r3, #-536870912
 490 045c 7F3983E2 		add	r3, r3, #2080768
 491 0460 8C3083E2 		add	r3, r3, #140
 492 0464 AA20A0E3 		mov	r2, #170
 493 0468 002083E5 		str	r2, [r3, #0]
 494              	.LM75:
 495 046c 0E32A0E3 		mov	r3, #-536870912
 496 0470 7F3983E2 		add	r3, r3, #2080768
 497 0474 8C3083E2 		add	r3, r3, #140
 498 0478 5520A0E3 		mov	r2, #85
 499 047c 002083E5 		str	r2, [r3, #0]
 500              	.LM76:
 501 0480 0CD04BE2 		sub	sp, fp, #12
 502 0484 00689DE8 		ldmfd	sp, {fp, sp, lr}
 503 0488 1EFF2FE1 		bx	lr
 504              	.LFE10:
 506              		.align	2
 507              		.global	processorClockFrequency
 509              	processorClockFrequency:
 510              	.LFB11:
 511              	.LM77:
 512              		@ Function supports interworking.
 513              		@ args = 0, pretend = 0, frame = 0
 514              		@ frame_needed = 1, uses_anonymous_args = 0
 515 048c 0DC0A0E1 		mov	ip, sp
 516              	.LCFI28:
 517 0490 00D82DE9 		stmfd	sp!, {fp, ip, lr, pc}
 518              	.LCFI29:
 519 0494 04B04CE2 		sub	fp, ip, #4
 520              	.LCFI30:
 521              	.LM78:
 522 0498 E137A0E3 		mov	r3, #58982400
 523              	.LM79:
 524 049c 0300A0E1 		mov	r0, r3
 525 04a0 0CD04BE2 		sub	sp, fp, #12
 526 04a4 00689DE8 		ldmfd	sp, {fp, sp, lr}
 527 04a8 1EFF2FE1 		bx	lr
 528              	.LFE11:
 530              		.global	__udivsi3
 531              		.align	2
 532              		.global	peripheralClockFrequency
 534              	peripheralClockFrequency:
 535              	.LFB12:
 536              	.LM80:
 537              		@ Function supports interworking.
 538              		@ args = 0, pretend = 0, frame = 8
 539              		@ frame_needed = 1, uses_anonymous_args = 0
 540 04ac 0DC0A0E1 		mov	ip, sp
 541              	.LCFI31:
 542 04b0 00D82DE9 		stmfd	sp!, {fp, ip, lr, pc}
 543              	.LCFI32:
 544 04b4 04B04CE2 		sub	fp, ip, #4
 545              	.LCFI33:
 546 04b8 08D04DE2 		sub	sp, sp, #8
 547              	.LCFI34:
 548              	.LM81:
 549 04bc 0E32A0E3 		mov	r3, #-536870912
 550 04c0 7F3983E2 		add	r3, r3, #2080768
 551 04c4 013C83E2 		add	r3, r3, #256
 552 04c8 003093E5 		ldr	r3, [r3, #0]
 553 04cc 033003E2 		and	r3, r3, #3
 554 04d0 14300BE5 		str	r3, [fp, #-20]
 555 04d4 14301BE5 		ldr	r3, [fp, #-20]
 556 04d8 010053E3 		cmp	r3, #1
 557 04dc 0900000A 		beq	.L33
 558 04e0 14301BE5 		ldr	r3, [fp, #-20]
 559 04e4 010053E3 		cmp	r3, #1
 560 04e8 0300003A 		bcc	.L32
 561 04ec 14301BE5 		ldr	r3, [fp, #-20]
 562 04f0 020053E3 		cmp	r3, #2
 563 04f4 0600000A 		beq	.L34
 564 04f8 070000EA 		b	.L31
 565              	.L32:
 566              	.LM82:
 567 04fc 0430A0E3 		mov	r3, #4
 568 0500 10300BE5 		str	r3, [fp, #-16]
 569              	.LM83:
 570 0504 040000EA 		b	.L31
 571              	.L33:
 572              	.LM84:
 573 0508 0130A0E3 		mov	r3, #1
 574 050c 10300BE5 		str	r3, [fp, #-16]
 575              	.LM85:
 576 0510 010000EA 		b	.L31
 577              	.L34:
 578              	.LM86:
 579 0514 0230A0E3 		mov	r3, #2
 580 0518 10300BE5 		str	r3, [fp, #-16]
 581              	.L31:
 582              	.LM87:
 583 051c FEFFFFEB 		bl	processorClockFrequency
 584 0520 0030A0E1 		mov	r3, r0
 585 0524 0300A0E1 		mov	r0, r3
 586 0528 10101BE5 		ldr	r1, [fp, #-16]
 587 052c FEFFFFEB 		bl	__udivsi3
 588 0530 0030A0E1 		mov	r3, r0
 589              	.LM88:
 590 0534 0300A0E1 		mov	r0, r3
 591 0538 0CD04BE2 		sub	sp, fp, #12
 592 053c 00689DE8 		ldmfd	sp, {fp, sp, lr}
 593 0540 1EFF2FE1 		bx	lr
 594              	.LFE12:
 596              		.align	2
 597              		.global	delay
 599              	delay:
 600              	.LFB13:
 601              	.LM89:
 602              		@ Function supports interworking.
 603              		@ args = 0, pretend = 0, frame = 8
 604              		@ frame_needed = 1, uses_anonymous_args = 0
 605 0544 0DC0A0E1 		mov	ip, sp
 606              	.LCFI35:
 607 0548 00D82DE9 		stmfd	sp!, {fp, ip, lr, pc}
 608              	.LCFI36:
 609 054c 04B04CE2 		sub	fp, ip, #4
 610              	.LCFI37:
 611 0550 08D04DE2 		sub	sp, sp, #8
 612              	.LCFI38:
 613 0554 14000BE5 		str	r0, [fp, #-20]
 614              	.LM90:
 615 0558 0030A0E3 		mov	r3, #0
 616 055c 10300BE5 		str	r3, [fp, #-16]
 617 0560 020000EA 		b	.L37
 618              	.L38:
 619 0564 10301BE5 		ldr	r3, [fp, #-16]
 620 0568 013083E2 		add	r3, r3, #1
 621 056c 10300BE5 		str	r3, [fp, #-16]
 622              	.L37:
 623 0570 10201BE5 		ldr	r2, [fp, #-16]
 624 0574 14301BE5 		ldr	r3, [fp, #-20]
 625 0578 030052E1 		cmp	r2, r3
 626 057c F8FFFFBA 		blt	.L38
 627              	.LM91:
 628 0580 0CD04BE2 		sub	sp, fp, #12
 629 0584 00689DE8 		ldmfd	sp, {fp, sp, lr}
 630 0588 1EFF2FE1 		bx	lr
 631              	.LFE13:
 633              		.comm	GPS_timeout,4,4
 634              		.comm	SYSTEM_initialized,1,1
 635              		.comm	SSP_trans_cnt,4,4
 954              	.Letext0: