   1              		.file	"uart.c"
   9              	.Ltext0:
  10              		.global	data_requested
  11              		.bss
  14              	data_requested:
  15 0000 00       		.space	1
  16              		.global	chksum_to_check
  19              	chksum_to_check:
  20 0001 00       		.space	1
  21              		.global	chksum_trigger
  22              		.data
  25              	chksum_trigger:
  26 0000 01       		.byte	1
  27              		.global	transmission_running
  28              		.bss
  31              	transmission_running:
  32 0002 00       		.space	1
  33              		.global	transmission1_running
  36              	transmission1_running:
  37 0003 00       		.space	1
  38              		.global	trigger_transmission
  41              	trigger_transmission:
  42 0004 00       		.space	1
  43              		.global	baudrate1_change
  46              	baudrate1_change:
  47 0005 00       		.space	1
  48              		.global	UART_syncstate
  51              	UART_syncstate:
  52 0006 00       		.space	1
  53              		.global	UART1_syncstate
  56              	UART1_syncstate:
  57 0007 00       		.space	1
  58              		.global	UART_rxcount
  59              		.align	2
  62              	UART_rxcount:
  63 0008 00000000 		.space	4
  64              		.global	UART1_rxcount
  65              		.align	2
  68              	UART1_rxcount:
  69 000c 00000000 		.space	4
  70              		.global	UART_CalibDoneFlag
  73              	UART_CalibDoneFlag:
  74 0010 00       		.space	1
  75              	rb_busy:
  76 0011 00       		.space	1
  77              		.global	startstring
  78              		.data
  81              	startstring:
  82 0001 3E       		.byte	62
  83 0002 2A       		.byte	42
  84 0003 3E       		.byte	62
  85              		.global	stopstring
  88              	stopstring:
  89 0004 3C       		.byte	60
  90 0005 23       		.byte	35
  91 0006 3C       		.byte	60
  92              		.text
  93              		.align	2
  94              		.global	uart1ISR
  96              	uart1ISR:
  97              	.LFB2:
  98              	.LM1:
  99              		@ Function supports interworking.
 100              		@ args = 0, pretend = 0, frame = 12
 101              		@ frame_needed = 1, uses_anonymous_args = 0
 102 0000 0DC0A0E1 		mov	ip, sp
 103              	.LCFI0:
 104 0004 00D82DE9 		stmfd	sp!, {fp, ip, lr, pc}
 105              	.LCFI1:
 106 0008 04B04CE2 		sub	fp, ip, #4
 107              	.LCFI2:
 108 000c 0CD04DE2 		sub	sp, sp, #12
 109              	.LCFI3:
 110              	.LM2:
 111 0010 8E32A0E3 		mov	r3, #-536870904
 112 0014 013883E2 		add	r3, r3, #65536
 113 0018 003093E5 		ldr	r3, [r3, #0]
 114 001c 10300BE5 		str	r3, [fp, #-16]
 115              	.LM3:
 116 0020 10301BE5 		ldr	r3, [fp, #-16]
 117 0024 A330A0E1 		mov	r3, r3, lsr #1
 118 0028 073003E2 		and	r3, r3, #7
 119 002c 18300BE5 		str	r3, [fp, #-24]
 120 0030 18301BE5 		ldr	r3, [fp, #-24]
 121 0034 010053E3 		cmp	r3, #1
 122 0038 0300000A 		beq	.L3
 123 003c 18301BE5 		ldr	r3, [fp, #-24]
 124 0040 020053E3 		cmp	r3, #2
 125 0044 1300000A 		beq	.L4
 126 0048 180000EA 		b	.L2
 127              	.L3:
 128              	.LM4:
 129 004c 11304BE2 		sub	r3, fp, #17
 130 0050 0000A0E3 		mov	r0, #0
 131 0054 0310A0E1 		mov	r1, r3
 132 0058 0120A0E3 		mov	r2, #1
 133 005c FEFFFFEB 		bl	ringbuffer1
 134 0060 0030A0E1 		mov	r3, r0
 135 0064 000053E3 		cmp	r3, #0
 136 0068 0600000A 		beq	.L5
 137              	.LM5:
 138 006c 58209FE5 		ldr	r2, .L9
 139 0070 0130A0E3 		mov	r3, #1
 140 0074 0030C2E5 		strb	r3, [r2, #0]
 141              	.LM6:
 142 0078 11305BE5 		ldrb	r3, [fp, #-17]	@ zero_extendqisi2
 143 007c 0300A0E1 		mov	r0, r3
 144 0080 FEFFFFEB 		bl	UART1WriteChar
 145 0084 090000EA 		b	.L2
 146              	.L5:
 147              	.LM7:
 148 0088 3C309FE5 		ldr	r3, .L9
 149 008c 0020A0E3 		mov	r2, #0
 150 0090 0020C3E5 		strb	r2, [r3, #0]
 151              	.LM8:
 152 0094 050000EA 		b	.L2
 153              	.L4:
 154              	.LM9:
 155 0098 0E32A0E3 		mov	r3, #-536870912
 156 009c 013883E2 		add	r3, r3, #65536
 157 00a0 003093E5 		ldr	r3, [r3, #0]
 158 00a4 FF3003E2 		and	r3, r3, #255
 159 00a8 0300A0E1 		mov	r0, r3
 160 00ac FEFFFFEB 		bl	uBloxReceiveHandler
 161              	.L2:
 162              	.LM10:
 163 00b0 0030A0E3 		mov	r3, #0
 164 00b4 FD3E43E2 		sub	r3, r3, #4048
 165 00b8 0020A0E3 		mov	r2, #0
 166 00bc 002083E5 		str	r2, [r3, #0]
 167              	.LM11:
 168 00c0 0CD04BE2 		sub	sp, fp, #12
 169 00c4 00689DE8 		ldmfd	sp, {fp, sp, lr}
 170 00c8 1EFF2FE1 		bx	lr
 171              	.L10:
 172              		.align	2
 173              	.L9:
 174 00cc 00000000 		.word	transmission1_running
 175              	.LFE2:
 177              		.align	2
 178              		.global	uart0ISR
 180              	uart0ISR:
 181              	.LFB3:
 182              	.LM12:
 183              		@ Function supports interworking.
 184              		@ args = 0, pretend = 0, frame = 12
 185              		@ frame_needed = 1, uses_anonymous_args = 0
 186 00d0 0DC0A0E1 		mov	ip, sp
 187              	.LCFI4:
 188 00d4 00D82DE9 		stmfd	sp!, {fp, ip, lr, pc}
 189              	.LCFI5:
 190 00d8 04B04CE2 		sub	fp, ip, #4
 191              	.LCFI6:
 192 00dc 0CD04DE2 		sub	sp, sp, #12
 193              	.LCFI7:
 194              	.LM13:
 195 00e0 0339A0E3 		mov	r3, #49152
 196 00e4 8E3283E2 		add	r3, r3, #-536870904
 197 00e8 003093E5 		ldr	r3, [r3, #0]
 198 00ec 10300BE5 		str	r3, [fp, #-16]
 199              	.LM14:
 200 00f0 10301BE5 		ldr	r3, [fp, #-16]
 201 00f4 A330A0E1 		mov	r3, r3, lsr #1
 202 00f8 073003E2 		and	r3, r3, #7
 203 00fc 18300BE5 		str	r3, [fp, #-24]
 204 0100 18301BE5 		ldr	r3, [fp, #-24]
 205 0104 010053E3 		cmp	r3, #1
 206 0108 0300000A 		beq	.L13
 207 010c 18301BE5 		ldr	r3, [fp, #-24]
 208 0110 020053E3 		cmp	r3, #2
 209 0114 0900000A 		beq	.L14
 210 0118 8D0000EA 		b	.L12
 211              	.L13:
 212              	.LM15:
 213 011c FEFFFFEB 		bl	aciTxRingBufferByteAvailable
 214 0120 0030A0E1 		mov	r3, r0
 215 0124 000053E3 		cmp	r3, #0
 216 0128 8900000A 		beq	.L12
 217              	.LM16:
 218 012c FEFFFFEB 		bl	aciTxRingBufferGetNextByte
 219 0130 0030A0E1 		mov	r3, r0
 220 0134 0300A0E1 		mov	r0, r3
 221 0138 FEFFFFEB 		bl	UARTWriteChar
 222              	.LM17:
 223 013c 840000EA 		b	.L12
 224              	.L14:
 225              	.LM18:
 226 0140 0E32A0E3 		mov	r3, #-536870912
 227 0144 033983E2 		add	r3, r3, #49152
 228 0148 003093E5 		ldr	r3, [r3, #0]
 229 014c 11304BE5 		strb	r3, [fp, #-17]
 230              	.LM19:
 231 0150 11305BE5 		ldrb	r3, [fp, #-17]	@ zero_extendqisi2
 232 0154 0300A0E1 		mov	r0, r3
 233 0158 FEFFFFEB 		bl	aciReceiveHandler
 234              	.LM20:
 235 015c 0C329FE5 		ldr	r3, .L54
 236 0160 0030D3E5 		ldrb	r3, [r3, #0]	@ zero_extendqisi2
 237 0164 000053E3 		cmp	r3, #0
 238 0168 0D00001A 		bne	.L17
 239              	.LM21:
 240 016c 11305BE5 		ldrb	r3, [fp, #-17]	@ zero_extendqisi2
 241 0170 3E0053E3 		cmp	r3, #62
 242 0174 0600001A 		bne	.L19
 243 0178 F0319FE5 		ldr	r3, .L54
 244 017c 0030D3E5 		ldrb	r3, [r3, #0]	@ zero_extendqisi2
 245 0180 013083E2 		add	r3, r3, #1
 246 0184 FF3003E2 		and	r3, r3, #255
 247 0188 E0219FE5 		ldr	r2, .L54
 248 018c 0030C2E5 		strb	r3, [r2, #0]
 249 0190 6F0000EA 		b	.L12
 250              	.L19:
 251 0194 D4319FE5 		ldr	r3, .L54
 252 0198 0020A0E3 		mov	r2, #0
 253 019c 0020C3E5 		strb	r2, [r3, #0]
 254 01a0 6B0000EA 		b	.L12
 255              	.L17:
 256              	.LM22:
 257 01a4 C4319FE5 		ldr	r3, .L54
 258 01a8 0030D3E5 		ldrb	r3, [r3, #0]	@ zero_extendqisi2
 259 01ac 010053E3 		cmp	r3, #1
 260 01b0 0D00001A 		bne	.L22
 261              	.LM23:
 262 01b4 11305BE5 		ldrb	r3, [fp, #-17]	@ zero_extendqisi2
 263 01b8 2A0053E3 		cmp	r3, #42
 264 01bc 0600001A 		bne	.L24
 265 01c0 A8319FE5 		ldr	r3, .L54
 266 01c4 0030D3E5 		ldrb	r3, [r3, #0]	@ zero_extendqisi2
 267 01c8 013083E2 		add	r3, r3, #1
 268 01cc FF3003E2 		and	r3, r3, #255
 269 01d0 98219FE5 		ldr	r2, .L54
 270 01d4 0030C2E5 		strb	r3, [r2, #0]
 271 01d8 5D0000EA 		b	.L12
 272              	.L24:
 273 01dc 8C319FE5 		ldr	r3, .L54
 274 01e0 0020A0E3 		mov	r2, #0
 275 01e4 0020C3E5 		strb	r2, [r3, #0]
 276 01e8 590000EA 		b	.L12
 277              	.L22:
 278              	.LM24:
 279 01ec 7C319FE5 		ldr	r3, .L54
 280 01f0 0030D3E5 		ldrb	r3, [r3, #0]	@ zero_extendqisi2
 281 01f4 020053E3 		cmp	r3, #2
 282 01f8 0D00001A 		bne	.L27
 283              	.LM25:
 284 01fc 11305BE5 		ldrb	r3, [fp, #-17]	@ zero_extendqisi2
 285 0200 3E0053E3 		cmp	r3, #62
 286 0204 0600001A 		bne	.L29
 287 0208 60319FE5 		ldr	r3, .L54
 288 020c 0030D3E5 		ldrb	r3, [r3, #0]	@ zero_extendqisi2
 289 0210 013083E2 		add	r3, r3, #1
 290 0214 FF3003E2 		and	r3, r3, #255
 291 0218 50219FE5 		ldr	r2, .L54
 292 021c 0030C2E5 		strb	r3, [r2, #0]
 293 0220 4B0000EA 		b	.L12
 294              	.L29:
 295 0224 44319FE5 		ldr	r3, .L54
 296 0228 0020A0E3 		mov	r2, #0
 297 022c 0020C3E5 		strb	r2, [r3, #0]
 298 0230 470000EA 		b	.L12
 299              	.L27:
 300              	.LM26:
 301 0234 34319FE5 		ldr	r3, .L54
 302 0238 0030D3E5 		ldrb	r3, [r3, #0]	@ zero_extendqisi2
 303 023c 030053E3 		cmp	r3, #3
 304 0240 0A00001A 		bne	.L32
 305              	.LM27:
 306 0244 11305BE5 		ldrb	r3, [fp, #-17]	@ zero_extendqisi2
 307 0248 620053E3 		cmp	r3, #98
 308 024c 0300001A 		bne	.L34
 309              	.LM28:
 310 0250 18319FE5 		ldr	r3, .L54
 311 0254 0420A0E3 		mov	r2, #4
 312 0258 0020C3E5 		strb	r2, [r3, #0]
 313 025c 3C0000EA 		b	.L12
 314              	.L34:
 315              	.LM29:
 316 0260 08319FE5 		ldr	r3, .L54
 317 0264 0020A0E3 		mov	r2, #0
 318 0268 0020C3E5 		strb	r2, [r3, #0]
 319 026c 380000EA 		b	.L12
 320              	.L32:
 321              	.LM30:
 322 0270 F8309FE5 		ldr	r3, .L54
 323 0274 0030D3E5 		ldrb	r3, [r3, #0]	@ zero_extendqisi2
 324 0278 040053E3 		cmp	r3, #4
 325 027c 1300001A 		bne	.L37
 326              	.LM31:
 327 0280 11305BE5 		ldrb	r3, [fp, #-17]	@ zero_extendqisi2
 328 0284 6F0053E3 		cmp	r3, #111
 329 0288 0300001A 		bne	.L39
 330              	.LM32:
 331 028c DC309FE5 		ldr	r3, .L54
 332 0290 0520A0E3 		mov	r2, #5
 333 0294 0020C3E5 		strb	r2, [r3, #0]
 334 0298 2D0000EA 		b	.L12
 335              	.L39:
 336              	.LM33:
 337 029c 11305BE5 		ldrb	r3, [fp, #-17]	@ zero_extendqisi2
 338 02a0 730053E3 		cmp	r3, #115
 339 02a4 0500001A 		bne	.L42
 340              	.LM34:
 341 02a8 5300A0E3 		mov	r0, #83
 342 02ac FEFFFFEB 		bl	UARTWriteChar
 343              	.LM35:
 344 02b0 B8309FE5 		ldr	r3, .L54
 345 02b4 0020A0E3 		mov	r2, #0
 346 02b8 0020C3E5 		strb	r2, [r3, #0]
 347 02bc 240000EA 		b	.L12
 348              	.L42:
 349              	.LM36:
 350 02c0 A8309FE5 		ldr	r3, .L54
 351 02c4 0020A0E3 		mov	r2, #0
 352 02c8 0020C3E5 		strb	r2, [r3, #0]
 353 02cc 200000EA 		b	.L12
 354              	.L37:
 355              	.LM37:
 356 02d0 98309FE5 		ldr	r3, .L54
 357 02d4 0030D3E5 		ldrb	r3, [r3, #0]	@ zero_extendqisi2
 358 02d8 050053E3 		cmp	r3, #5
 359 02dc 0A00001A 		bne	.L44
 360              	.LM38:
 361 02e0 11305BE5 		ldrb	r3, [fp, #-17]	@ zero_extendqisi2
 362 02e4 6F0053E3 		cmp	r3, #111
 363 02e8 0300001A 		bne	.L46
 364              	.LM39:
 365 02ec 7C309FE5 		ldr	r3, .L54
 366 02f0 0620A0E3 		mov	r2, #6
 367 02f4 0020C3E5 		strb	r2, [r3, #0]
 368 02f8 150000EA 		b	.L12
 369              	.L46:
 370              	.LM40:
 371 02fc 6C309FE5 		ldr	r3, .L54
 372 0300 0020A0E3 		mov	r2, #0
 373 0304 0020C3E5 		strb	r2, [r3, #0]
 374 0308 110000EA 		b	.L12
 375              	.L44:
 376              	.LM41:
 377 030c 5C309FE5 		ldr	r3, .L54
 378 0310 0030D3E5 		ldrb	r3, [r3, #0]	@ zero_extendqisi2
 379 0314 060053E3 		cmp	r3, #6
 380 0318 0A00001A 		bne	.L49
 381              	.LM42:
 382 031c 11305BE5 		ldrb	r3, [fp, #-17]	@ zero_extendqisi2
 383 0320 740053E3 		cmp	r3, #116
 384 0324 0300001A 		bne	.L51
 385              	.LM43:
 386 0328 40309FE5 		ldr	r3, .L54
 387 032c 0020A0E3 		mov	r2, #0
 388 0330 0020C3E5 		strb	r2, [r3, #0]
 389              	.LM44:
 390 0334 FEFFFFEB 		bl	enter_isp
 391              	.L51:
 392              	.LM45:
 393 0338 30309FE5 		ldr	r3, .L54
 394 033c 0020A0E3 		mov	r2, #0
 395 0340 0020C3E5 		strb	r2, [r3, #0]
 396 0344 020000EA 		b	.L12
 397              	.L49:
 398              	.LM46:
 399 0348 20309FE5 		ldr	r3, .L54
 400 034c 0020A0E3 		mov	r2, #0
 401 0350 0020C3E5 		strb	r2, [r3, #0]
 402              	.L12:
 403              	.LM47:
 404 0354 0030A0E3 		mov	r3, #0
 405 0358 FD3E43E2 		sub	r3, r3, #4048
 406 035c 0020A0E3 		mov	r2, #0
 407 0360 002083E5 		str	r2, [r3, #0]
 408              	.LM48:
 409 0364 0CD04BE2 		sub	sp, fp, #12
 410 0368 00689DE8 		ldmfd	sp, {fp, sp, lr}
 411 036c 1EFF2FE1 		bx	lr
 412              	.L55:
 413              		.align	2
 414              	.L54:
 415 0370 00000000 		.word	UART_syncstate
 416              	.LFE3:
 418              		.global	__udivsi3
 419              		.align	2
 420              		.global	UARTInitialize
 422              	UARTInitialize:
 423              	.LFB4:
 424              	.LM49:
 425              		@ Function supports interworking.
 426              		@ args = 0, pretend = 0, frame = 8
 427              		@ frame_needed = 1, uses_anonymous_args = 0
 428 0374 0DC0A0E1 		mov	ip, sp
 429              	.LCFI8:
 430 0378 00D82DE9 		stmfd	sp!, {fp, ip, lr, pc}
 431              	.LCFI9:
 432 037c 04B04CE2 		sub	fp, ip, #4
 433              	.LCFI10:
 434 0380 08D04DE2 		sub	sp, sp, #8
 435              	.LCFI11:
 436 0384 14000BE5 		str	r0, [fp, #-20]
 437              	.LM50:
 438 0388 FEFFFFEB 		bl	peripheralClockFrequency
 439 038c 0020A0E1 		mov	r2, r0
 440 0390 14301BE5 		ldr	r3, [fp, #-20]
 441 0394 0332A0E1 		mov	r3, r3, asl #4
 442 0398 0200A0E1 		mov	r0, r2
 443 039c 0310A0E1 		mov	r1, r3
 444 03a0 FEFFFFEB 		bl	__udivsi3
 445 03a4 0030A0E1 		mov	r3, r0
 446 03a8 10300BE5 		str	r3, [fp, #-16]
 447              	.LM51:
 448 03ac 0339A0E3 		mov	r3, #49152
 449 03b0 CE3283E2 		add	r3, r3, #-536870900
 450 03b4 8320A0E3 		mov	r2, #131
 451 03b8 002083E5 		str	r2, [r3, #0]
 452              	.LM52:
 453 03bc 0E32A0E3 		mov	r3, #-536870912
 454 03c0 033983E2 		add	r3, r3, #49152
 455 03c4 10201BE5 		ldr	r2, [fp, #-16]
 456 03c8 FF2002E2 		and	r2, r2, #255
 457 03cc 002083E5 		str	r2, [r3, #0]
 458              	.LM53:
 459 03d0 0329A0E3 		mov	r2, #49152
 460 03d4 4E2282E2 		add	r2, r2, #-536870908
 461 03d8 10301BE5 		ldr	r3, [fp, #-16]
 462 03dc 2334A0E1 		mov	r3, r3, lsr #8
 463 03e0 FF3003E2 		and	r3, r3, #255
 464 03e4 003082E5 		str	r3, [r2, #0]
 465              	.LM54:
 466 03e8 0329A0E3 		mov	r2, #49152
 467 03ec CE2282E2 		add	r2, r2, #-536870900
 468 03f0 0339A0E3 		mov	r3, #49152
 469 03f4 CE3283E2 		add	r3, r3, #-536870900
 470 03f8 003093E5 		ldr	r3, [r3, #0]
 471 03fc 8030C3E3 		bic	r3, r3, #128
 472 0400 003082E5 		str	r3, [r2, #0]
 473              	.LM55:
 474 0404 0339A0E3 		mov	r3, #49152
 475 0408 8E3283E2 		add	r3, r3, #-536870904
 476 040c 0120A0E3 		mov	r2, #1
 477 0410 002083E5 		str	r2, [r3, #0]
 478              	.LM56:
 479 0414 0CD04BE2 		sub	sp, fp, #12
 480 0418 00689DE8 		ldmfd	sp, {fp, sp, lr}
 481 041c 1EFF2FE1 		bx	lr
 482              	.LFE4:
 484              		.align	2
 485              		.global	UART1Initialize
 487              	UART1Initialize:
 488              	.LFB5:
 489              	.LM57:
 490              		@ Function supports interworking.
 491              		@ args = 0, pretend = 0, frame = 8
 492              		@ frame_needed = 1, uses_anonymous_args = 0
 493 0420 0DC0A0E1 		mov	ip, sp
 494              	.LCFI12:
 495 0424 00D82DE9 		stmfd	sp!, {fp, ip, lr, pc}
 496              	.LCFI13:
 497 0428 04B04CE2 		sub	fp, ip, #4
 498              	.LCFI14:
 499 042c 08D04DE2 		sub	sp, sp, #8
 500              	.LCFI15:
 501 0430 14000BE5 		str	r0, [fp, #-20]
 502              	.LM58:
 503 0434 FEFFFFEB 		bl	peripheralClockFrequency
 504 0438 0020A0E1 		mov	r2, r0
 505 043c 14301BE5 		ldr	r3, [fp, #-20]
 506 0440 0332A0E1 		mov	r3, r3, asl #4
 507 0444 0200A0E1 		mov	r0, r2
 508 0448 0310A0E1 		mov	r1, r3
 509 044c FEFFFFEB 		bl	__udivsi3
 510 0450 0030A0E1 		mov	r3, r0
 511 0454 10300BE5 		str	r3, [fp, #-16]
 512              	.LM59:
 513 0458 CE32A0E3 		mov	r3, #-536870900
 514 045c 013883E2 		add	r3, r3, #65536
 515 0460 8320A0E3 		mov	r2, #131
 516 0464 002083E5 		str	r2, [r3, #0]
 517              	.LM60:
 518 0468 0E32A0E3 		mov	r3, #-536870912
 519 046c 013883E2 		add	r3, r3, #65536
 520 0470 10201BE5 		ldr	r2, [fp, #-16]
 521 0474 FF2002E2 		and	r2, r2, #255
 522 0478 002083E5 		str	r2, [r3, #0]
 523              	.LM61:
 524 047c 4E22A0E3 		mov	r2, #-536870908
 525 0480 012882E2 		add	r2, r2, #65536
 526 0484 10301BE5 		ldr	r3, [fp, #-16]
 527 0488 2334A0E1 		mov	r3, r3, lsr #8
 528 048c FF3003E2 		and	r3, r3, #255
 529 0490 003082E5 		str	r3, [r2, #0]
 530              	.LM62:
 531 0494 CE22A0E3 		mov	r2, #-536870900
 532 0498 012882E2 		add	r2, r2, #65536
 533 049c CE32A0E3 		mov	r3, #-536870900
 534 04a0 013883E2 		add	r3, r3, #65536
 535 04a4 003093E5 		ldr	r3, [r3, #0]
 536 04a8 8030C3E3 		bic	r3, r3, #128
 537 04ac 003082E5 		str	r3, [r2, #0]
 538              	.LM63:
 539 04b0 8E32A0E3 		mov	r3, #-536870904
 540 04b4 013883E2 		add	r3, r3, #65536
 541 04b8 0120A0E3 		mov	r2, #1
 542 04bc 002083E5 		str	r2, [r3, #0]
 543              	.LM64:
 544 04c0 0CD04BE2 		sub	sp, fp, #12
 545 04c4 00689DE8 		ldmfd	sp, {fp, sp, lr}
 546 04c8 1EFF2FE1 		bx	lr
 547              	.LFE5:
 549              		.align	2
 550              		.global	UARTWriteChar
 552              	UARTWriteChar:
 553              	.LFB6:
 554              	.LM65:
 555              		@ Function supports interworking.
 556              		@ args = 0, pretend = 0, frame = 4
 557              		@ frame_needed = 1, uses_anonymous_args = 0
 558 04cc 0DC0A0E1 		mov	ip, sp
 559              	.LCFI16:
 560 04d0 00D82DE9 		stmfd	sp!, {fp, ip, lr, pc}
 561              	.LCFI17:
 562 04d4 04B04CE2 		sub	fp, ip, #4
 563              	.LCFI18:
 564 04d8 04D04DE2 		sub	sp, sp, #4
 565              	.LCFI19:
 566 04dc 0030A0E1 		mov	r3, r0
 567 04e0 10304BE5 		strb	r3, [fp, #-16]
 568              	.L61:
 569              	.LM66:
 570 04e4 0E32A0E3 		mov	r3, #-536870912
 571 04e8 033983E2 		add	r3, r3, #49152
 572 04ec 143083E2 		add	r3, r3, #20
 573 04f0 003093E5 		ldr	r3, [r3, #0]
 574 04f4 203003E2 		and	r3, r3, #32
 575 04f8 000053E3 		cmp	r3, #0
 576 04fc F8FFFF0A 		beq	.L61
 577              	.LM67:
 578 0500 0E32A0E3 		mov	r3, #-536870912
 579 0504 033983E2 		add	r3, r3, #49152
 580 0508 10205BE5 		ldrb	r2, [fp, #-16]	@ zero_extendqisi2
 581 050c 002083E5 		str	r2, [r3, #0]
 582              	.LM68:
 583 0510 0CD04BE2 		sub	sp, fp, #12
 584 0514 00689DE8 		ldmfd	sp, {fp, sp, lr}
 585 0518 1EFF2FE1 		bx	lr
 586              	.LFE6:
 588              		.align	2
 589              		.global	UART1WriteChar
 591              	UART1WriteChar:
 592              	.LFB7:
 593              	.LM69:
 594              		@ Function supports interworking.
 595              		@ args = 0, pretend = 0, frame = 4
 596              		@ frame_needed = 1, uses_anonymous_args = 0
 597 051c 0DC0A0E1 		mov	ip, sp
 598              	.LCFI20:
 599 0520 00D82DE9 		stmfd	sp!, {fp, ip, lr, pc}
 600              	.LCFI21:
 601 0524 04B04CE2 		sub	fp, ip, #4
 602              	.LCFI22:
 603 0528 04D04DE2 		sub	sp, sp, #4
 604              	.LCFI23:
 605 052c 0030A0E1 		mov	r3, r0
 606 0530 10304BE5 		strb	r3, [fp, #-16]
 607              	.L65:
 608              	.LM70:
 609 0534 0E32A0E3 		mov	r3, #-536870912
 610 0538 013883E2 		add	r3, r3, #65536
 611 053c 143083E2 		add	r3, r3, #20
 612 0540 003093E5 		ldr	r3, [r3, #0]
 613 0544 203003E2 		and	r3, r3, #32
 614 0548 000053E3 		cmp	r3, #0
 615 054c F8FFFF0A 		beq	.L65
 616              	.LM71:
 617 0550 0E32A0E3 		mov	r3, #-536870912
 618 0554 013883E2 		add	r3, r3, #65536
 619 0558 10205BE5 		ldrb	r2, [fp, #-16]	@ zero_extendqisi2
 620 055c 002083E5 		str	r2, [r3, #0]
 621              	.LM72:
 622 0560 0CD04BE2 		sub	sp, fp, #12
 623 0564 00689DE8 		ldmfd	sp, {fp, sp, lr}
 624 0568 1EFF2FE1 		bx	lr
 625              	.LFE7:
 627              		.align	2
 628              		.global	UARTReadChar
 630              	UARTReadChar:
 631              	.LFB8:
 632              	.LM73:
 633              		@ Function supports interworking.
 634              		@ args = 0, pretend = 0, frame = 0
 635              		@ frame_needed = 1, uses_anonymous_args = 0
 636 056c 0DC0A0E1 		mov	ip, sp
 637              	.LCFI24:
 638 0570 00D82DE9 		stmfd	sp!, {fp, ip, lr, pc}
 639              	.LCFI25:
 640 0574 04B04CE2 		sub	fp, ip, #4
 641              	.LCFI26:
 642              	.L69:
 643              	.LM74:
 644 0578 0E32A0E3 		mov	r3, #-536870912
 645 057c 033983E2 		add	r3, r3, #49152
 646 0580 143083E2 		add	r3, r3, #20
 647 0584 003093E5 		ldr	r3, [r3, #0]
 648 0588 013003E2 		and	r3, r3, #1
 649 058c 000053E3 		cmp	r3, #0
 650 0590 F8FFFF0A 		beq	.L69
 651              	.LM75:
 652 0594 0E32A0E3 		mov	r3, #-536870912
 653 0598 033983E2 		add	r3, r3, #49152
 654 059c 003093E5 		ldr	r3, [r3, #0]
 655 05a0 FF3003E2 		and	r3, r3, #255
 656              	.LM76:
 657 05a4 0300A0E1 		mov	r0, r3
 658 05a8 0CD04BE2 		sub	sp, fp, #12
 659 05ac 00689DE8 		ldmfd	sp, {fp, sp, lr}
 660 05b0 1EFF2FE1 		bx	lr
 661              	.LFE8:
 663              		.align	2
 664              		.global	UART1ReadChar
 666              	UART1ReadChar:
 667              	.LFB9:
 668              	.LM77:
 669              		@ Function supports interworking.
 670              		@ args = 0, pretend = 0, frame = 0
 671              		@ frame_needed = 1, uses_anonymous_args = 0
 672 05b4 0DC0A0E1 		mov	ip, sp
 673              	.LCFI27:
 674 05b8 00D82DE9 		stmfd	sp!, {fp, ip, lr, pc}
 675              	.LCFI28:
 676 05bc 04B04CE2 		sub	fp, ip, #4
 677              	.LCFI29:
 678              	.L73:
 679              	.LM78:
 680 05c0 0E32A0E3 		mov	r3, #-536870912
 681 05c4 013883E2 		add	r3, r3, #65536
 682 05c8 143083E2 		add	r3, r3, #20
 683 05cc 003093E5 		ldr	r3, [r3, #0]
 684 05d0 013003E2 		and	r3, r3, #1
 685 05d4 000053E3 		cmp	r3, #0
 686 05d8 F8FFFF0A 		beq	.L73
 687              	.LM79:
 688 05dc 0E32A0E3 		mov	r3, #-536870912
 689 05e0 013883E2 		add	r3, r3, #65536
 690 05e4 003093E5 		ldr	r3, [r3, #0]
 691 05e8 FF3003E2 		and	r3, r3, #255
 692              	.LM80:
 693 05ec 0300A0E1 		mov	r0, r3
 694 05f0 0CD04BE2 		sub	sp, fp, #12
 695 05f4 00689DE8 		ldmfd	sp, {fp, sp, lr}
 696 05f8 1EFF2FE1 		bx	lr
 697              	.LFE9:
 699              		.align	2
 700              		.global	__putchar
 702              	__putchar:
 703              	.LFB10:
 704              	.LM81:
 705              		@ Function supports interworking.
 706              		@ args = 0, pretend = 0, frame = 4
 707              		@ frame_needed = 1, uses_anonymous_args = 0
 708 05fc 0DC0A0E1 		mov	ip, sp
 709              	.LCFI30:
 710 0600 00D82DE9 		stmfd	sp!, {fp, ip, lr, pc}
 711              	.LCFI31:
 712 0604 04B04CE2 		sub	fp, ip, #4
 713              	.LCFI32:
 714 0608 04D04DE2 		sub	sp, sp, #4
 715              	.LCFI33:
 716 060c 10000BE5 		str	r0, [fp, #-16]
 717              	.LM82:
 718 0610 10301BE5 		ldr	r3, [fp, #-16]
 719 0614 0A0053E3 		cmp	r3, #10
 720 0618 0100001A 		bne	.L77
 721              	.LM83:
 722 061c 0D00A0E3 		mov	r0, #13
 723 0620 FEFFFFEB 		bl	UARTWriteChar
 724              	.L77:
 725              	.LM84:
 726 0624 10301BE5 		ldr	r3, [fp, #-16]
 727 0628 FF3003E2 		and	r3, r3, #255
 728 062c 0300A0E1 		mov	r0, r3
 729 0630 FEFFFFEB 		bl	UARTWriteChar
 730              	.LM85:
 731 0634 0CD04BE2 		sub	sp, fp, #12
 732 0638 00689DE8 		ldmfd	sp, {fp, sp, lr}
 733 063c 1EFF2FE1 		bx	lr
 734              	.LFE10:
 736              		.align	2
 737              		.global	UART_send
 739              	UART_send:
 740              	.LFB11:
 741              	.LM86:
 742              		@ Function supports interworking.
 743              		@ args = 0, pretend = 0, frame = 12
 744              		@ frame_needed = 1, uses_anonymous_args = 0
 745 0640 0DC0A0E1 		mov	ip, sp
 746              	.LCFI34:
 747 0644 00D82DE9 		stmfd	sp!, {fp, ip, lr, pc}
 748              	.LCFI35:
 749 0648 04B04CE2 		sub	fp, ip, #4
 750              	.LCFI36:
 751 064c 0CD04DE2 		sub	sp, sp, #12
 752              	.LCFI37:
 753 0650 14000BE5 		str	r0, [fp, #-20]
 754 0654 0130A0E1 		mov	r3, r1
 755 0658 18304BE5 		strb	r3, [fp, #-24]
 756              	.LM87:
 757 065c 0030A0E3 		mov	r3, #0
 758 0660 0D304BE5 		strb	r3, [fp, #-13]
 759              	.L81:
 760              	.LM88:
 761 0664 0E32A0E3 		mov	r3, #-536870912
 762 0668 033983E2 		add	r3, r3, #49152
 763 066c 143083E2 		add	r3, r3, #20
 764 0670 003093E5 		ldr	r3, [r3, #0]
 765 0674 203003E2 		and	r3, r3, #32
 766 0678 000053E3 		cmp	r3, #0
 767 067c F8FFFF0A 		beq	.L81
 768              	.LM89:
 769 0680 140000EA 		b	.L88
 770              	.L84:
 771              	.LM90:
 772 0684 0E22A0E3 		mov	r2, #-536870912
 773 0688 032982E2 		add	r2, r2, #49152
 774 068c 0D305BE5 		ldrb	r3, [fp, #-13]	@ zero_extendqisi2
 775 0690 0310A0E1 		mov	r1, r3
 776 0694 14301BE5 		ldr	r3, [fp, #-20]
 777 0698 033081E0 		add	r3, r1, r3
 778 069c 0030D3E5 		ldrb	r3, [r3, #0]	@ zero_extendqisi2
 779 06a0 003082E5 		str	r3, [r2, #0]
 780 06a4 0D305BE5 		ldrb	r3, [fp, #-13]
 781 06a8 013083E2 		add	r3, r3, #1
 782 06ac 0D304BE5 		strb	r3, [fp, #-13]
 783              	.LM91:
 784 06b0 0D305BE5 		ldrb	r3, [fp, #-13]	@ zero_extendqisi2
 785 06b4 0F0053E3 		cmp	r3, #15
 786 06b8 0600009A 		bls	.L83
 787              	.L85:
 788              	.LM92:
 789 06bc 0E32A0E3 		mov	r3, #-536870912
 790 06c0 033983E2 		add	r3, r3, #49152
 791 06c4 143083E2 		add	r3, r3, #20
 792 06c8 003093E5 		ldr	r3, [r3, #0]
 793 06cc 203003E2 		and	r3, r3, #32
 794 06d0 000053E3 		cmp	r3, #0
 795 06d4 F8FFFF0A 		beq	.L85
 796              	.L83:
 797              	.L88:
 798              	.LM93:
 799 06d8 18305BE5 		ldrb	r3, [fp, #-24]
 800 06dc 013043E2 		sub	r3, r3, #1
 801 06e0 18304BE5 		strb	r3, [fp, #-24]
 802 06e4 18305BE5 		ldrb	r3, [fp, #-24]	@ zero_extendqisi2
 803 06e8 FF0053E3 		cmp	r3, #255
 804 06ec E4FFFF1A 		bne	.L84
 805              	.LM94:
 806 06f0 0CD04BE2 		sub	sp, fp, #12
 807 06f4 00689DE8 		ldmfd	sp, {fp, sp, lr}
 808 06f8 1EFF2FE1 		bx	lr
 809              	.LFE11:
 811              		.align	2
 812              		.global	UART1_send
 814              	UART1_send:
 815              	.LFB12:
 816              	.LM95:
 817              		@ Function supports interworking.
 818              		@ args = 0, pretend = 0, frame = 12
 819              		@ frame_needed = 1, uses_anonymous_args = 0
 820 06fc 0DC0A0E1 		mov	ip, sp
 821              	.LCFI38:
 822 0700 00D82DE9 		stmfd	sp!, {fp, ip, lr, pc}
 823              	.LCFI39:
 824 0704 04B04CE2 		sub	fp, ip, #4
 825              	.LCFI40:
 826 0708 0CD04DE2 		sub	sp, sp, #12
 827              	.LCFI41:
 828 070c 14000BE5 		str	r0, [fp, #-20]
 829 0710 0130A0E1 		mov	r3, r1
 830 0714 18304BE5 		strb	r3, [fp, #-24]
 831              	.LM96:
 832 0718 0030A0E3 		mov	r3, #0
 833 071c 0D304BE5 		strb	r3, [fp, #-13]
 834              	.LM97:
 835 0720 110000EA 		b	.L90
 836              	.L91:
 837              	.LM98:
 838 0724 0E32A0E3 		mov	r3, #-536870912
 839 0728 013883E2 		add	r3, r3, #65536
 840 072c 143083E2 		add	r3, r3, #20
 841 0730 003093E5 		ldr	r3, [r3, #0]
 842 0734 203003E2 		and	r3, r3, #32
 843 0738 000053E3 		cmp	r3, #0
 844 073c F8FFFF0A 		beq	.L91
 845              	.LM99:
 846 0740 0E22A0E3 		mov	r2, #-536870912
 847 0744 012882E2 		add	r2, r2, #65536
 848 0748 0D305BE5 		ldrb	r3, [fp, #-13]	@ zero_extendqisi2
 849 074c 0310A0E1 		mov	r1, r3
 850 0750 14301BE5 		ldr	r3, [fp, #-20]
 851 0754 033081E0 		add	r3, r1, r3
 852 0758 0030D3E5 		ldrb	r3, [r3, #0]	@ zero_extendqisi2
 853 075c 003082E5 		str	r3, [r2, #0]
 854 0760 0D305BE5 		ldrb	r3, [fp, #-13]
 855 0764 013083E2 		add	r3, r3, #1
 856 0768 0D304BE5 		strb	r3, [fp, #-13]
 857              	.L90:
 858              	.LM100:
 859 076c 18305BE5 		ldrb	r3, [fp, #-24]
 860 0770 013043E2 		sub	r3, r3, #1
 861 0774 18304BE5 		strb	r3, [fp, #-24]
 862 0778 18305BE5 		ldrb	r3, [fp, #-24]	@ zero_extendqisi2
 863 077c FF0053E3 		cmp	r3, #255
 864 0780 E7FFFF1A 		bne	.L91
 865              	.LM101:
 866 0784 0CD04BE2 		sub	sp, fp, #12
 867 0788 00689DE8 		ldmfd	sp, {fp, sp, lr}
 868 078c 1EFF2FE1 		bx	lr
 869              	.LFE12:
 871              		.align	2
 872              		.global	UART_send_ringbuffer
 874              	UART_send_ringbuffer:
 875              	.LFB13:
 876              	.LM102:
 877              		@ Function supports interworking.
 878              		@ args = 0, pretend = 0, frame = 4
 879              		@ frame_needed = 1, uses_anonymous_args = 0
 880 0790 0DC0A0E1 		mov	ip, sp
 881              	.LCFI42:
 882 0794 00D82DE9 		stmfd	sp!, {fp, ip, lr, pc}
 883              	.LCFI43:
 884 0798 04B04CE2 		sub	fp, ip, #4
 885              	.LCFI44:
 886 079c 04D04DE2 		sub	sp, sp, #4
 887              	.LCFI45:
 888              	.LM103:
 889 07a0 4C309FE5 		ldr	r3, .L100
 890 07a4 0030D3E5 		ldrb	r3, [r3, #0]	@ zero_extendqisi2
 891 07a8 000053E3 		cmp	r3, #0
 892 07ac 0D00001A 		bne	.L99
 893              	.LM104:
 894 07b0 0D304BE2 		sub	r3, fp, #13
 895 07b4 0000A0E3 		mov	r0, #0
 896 07b8 0310A0E1 		mov	r1, r3
 897 07bc 0120A0E3 		mov	r2, #1
 898 07c0 FEFFFFEB 		bl	ringbuffer
 899 07c4 0030A0E1 		mov	r3, r0
 900 07c8 000053E3 		cmp	r3, #0
 901 07cc 0500000A 		beq	.L99
 902              	.LM105:
 903 07d0 1C209FE5 		ldr	r2, .L100
 904 07d4 0130A0E3 		mov	r3, #1
 905 07d8 0030C2E5 		strb	r3, [r2, #0]
 906              	.LM106:
 907 07dc 0D305BE5 		ldrb	r3, [fp, #-13]	@ zero_extendqisi2
 908 07e0 0300A0E1 		mov	r0, r3
 909 07e4 FEFFFFEB 		bl	UARTWriteChar
 910              	.L99:
 911              	.LM107:
 912 07e8 0CD04BE2 		sub	sp, fp, #12
 913 07ec 00689DE8 		ldmfd	sp, {fp, sp, lr}
 914 07f0 1EFF2FE1 		bx	lr
 915              	.L101:
 916              		.align	2
 917              	.L100:
 918 07f4 00000000 		.word	transmission_running
 919              	.LFE13:
 921              		.align	2
 922              		.global	UART1_send_ringbuffer
 924              	UART1_send_ringbuffer:
 925              	.LFB14:
 926              	.LM108:
 927              		@ Function supports interworking.
 928              		@ args = 0, pretend = 0, frame = 4
 929              		@ frame_needed = 1, uses_anonymous_args = 0
 930 07f8 0DC0A0E1 		mov	ip, sp
 931              	.LCFI46:
 932 07fc 00D82DE9 		stmfd	sp!, {fp, ip, lr, pc}
 933              	.LCFI47:
 934 0800 04B04CE2 		sub	fp, ip, #4
 935              	.LCFI48:
 936 0804 04D04DE2 		sub	sp, sp, #4
 937              	.LCFI49:
 938              	.LM109:
 939 0808 4C309FE5 		ldr	r3, .L107
 940 080c 0030D3E5 		ldrb	r3, [r3, #0]	@ zero_extendqisi2
 941 0810 000053E3 		cmp	r3, #0
 942 0814 0D00001A 		bne	.L106
 943              	.LM110:
 944 0818 0D304BE2 		sub	r3, fp, #13
 945 081c 0000A0E3 		mov	r0, #0
 946 0820 0310A0E1 		mov	r1, r3
 947 0824 0120A0E3 		mov	r2, #1
 948 0828 FEFFFFEB 		bl	ringbuffer1
 949 082c 0030A0E1 		mov	r3, r0
 950 0830 000053E3 		cmp	r3, #0
 951 0834 0500000A 		beq	.L106
 952              	.LM111:
 953 0838 1C209FE5 		ldr	r2, .L107
 954 083c 0130A0E3 		mov	r3, #1
 955 0840 0030C2E5 		strb	r3, [r2, #0]
 956              	.LM112:
 957 0844 0D305BE5 		ldrb	r3, [fp, #-13]	@ zero_extendqisi2
 958 0848 0300A0E1 		mov	r0, r3
 959 084c FEFFFFEB 		bl	UART1WriteChar
 960              	.L106:
 961              	.LM113:
 962 0850 0CD04BE2 		sub	sp, fp, #12
 963 0854 00689DE8 		ldmfd	sp, {fp, sp, lr}
 964 0858 1EFF2FE1 		bx	lr
 965              	.L108:
 966              		.align	2
 967              	.L107:
 968 085c 00000000 		.word	transmission1_running
 969              	.LFE14:
 971              		.align	2
 972              		.global	UART_SendPacket
 974              	UART_SendPacket:
 975              	.LFB15:
 976              	.LM114:
 977              		@ Function supports interworking.
 978              		@ args = 0, pretend = 0, frame = 20
 979              		@ frame_needed = 1, uses_anonymous_args = 0
 980 0860 0DC0A0E1 		mov	ip, sp
 981              	.LCFI50:
 982 0864 00D82DE9 		stmfd	sp!, {fp, ip, lr, pc}
 983              	.LCFI51:
 984 0868 04B04CE2 		sub	fp, ip, #4
 985              	.LCFI52:
 986 086c 14D04DE2 		sub	sp, sp, #20
 987              	.LCFI53:
 988 0870 18000BE5 		str	r0, [fp, #-24]
 989 0874 0130A0E1 		mov	r3, r1
 990 0878 BC314BE1 		strh	r3, [fp, #-28]	@ movhi
 991 087c 0230A0E1 		mov	r3, r2
 992 0880 20304BE5 		strb	r3, [fp, #-32]
 993              	.LM115:
 994 0884 0100A0E3 		mov	r0, #1
 995 0888 C0109FE5 		ldr	r1, .L111
 996 088c 0320A0E3 		mov	r2, #3
 997 0890 FEFFFFEB 		bl	ringbuffer
 998 0894 0030A0E1 		mov	r3, r0
 999 0898 10300BE5 		str	r3, [fp, #-16]
 1000              	.LM116:
 1001 089c 1C304BE2 		sub	r3, fp, #28
 1002 08a0 0100A0E3 		mov	r0, #1
 1003 08a4 0310A0E1 		mov	r1, r3
 1004 08a8 0220A0E3 		mov	r2, #2
 1005 08ac FEFFFFEB 		bl	ringbuffer
 1006 08b0 0030A0E1 		mov	r3, r0
 1007 08b4 10300BE5 		str	r3, [fp, #-16]
 1008              	.LM117:
 1009 08b8 20304BE2 		sub	r3, fp, #32
 1010 08bc 0100A0E3 		mov	r0, #1
 1011 08c0 0310A0E1 		mov	r1, r3
 1012 08c4 0120A0E3 		mov	r2, #1
 1013 08c8 FEFFFFEB 		bl	ringbuffer
 1014 08cc 0030A0E1 		mov	r3, r0
 1015 08d0 10300BE5 		str	r3, [fp, #-16]
 1016              	.LM118:
 1017 08d4 18201BE5 		ldr	r2, [fp, #-24]
 1018 08d8 BC315BE1 		ldrh	r3, [fp, #-28]
 1019 08dc 0100A0E3 		mov	r0, #1
 1020 08e0 0210A0E1 		mov	r1, r2
 1021 08e4 0320A0E1 		mov	r2, r3
 1022 08e8 FEFFFFEB 		bl	ringbuffer
 1023 08ec 0030A0E1 		mov	r3, r0
 1024 08f0 10300BE5 		str	r3, [fp, #-16]
 1025              	.LM119:
 1026 08f4 BC315BE1 		ldrh	r3, [fp, #-28]
 1027 08f8 18001BE5 		ldr	r0, [fp, #-24]
 1028 08fc 0310A0E1 		mov	r1, r3
 1029 0900 FEFFFFEB 		bl	crc16
 1030 0904 0030A0E1 		mov	r3, r0
 1031 0908 B2314BE1 		strh	r3, [fp, #-18]	@ movhi
 1032              	.LM120:
 1033 090c 12304BE2 		sub	r3, fp, #18
 1034 0910 0100A0E3 		mov	r0, #1
 1035 0914 0310A0E1 		mov	r1, r3
 1036 0918 0220A0E3 		mov	r2, #2
 1037 091c FEFFFFEB 		bl	ringbuffer
 1038 0920 0030A0E1 		mov	r3, r0
 1039 0924 10300BE5 		str	r3, [fp, #-16]
 1040              	.LM121:
 1041 0928 0100A0E3 		mov	r0, #1
 1042 092c 20109FE5 		ldr	r1, .L111+4
 1043 0930 0320A0E3 		mov	r2, #3
 1044 0934 FEFFFFEB 		bl	ringbuffer
 1045 0938 0030A0E1 		mov	r3, r0
 1046 093c 10300BE5 		str	r3, [fp, #-16]
 1047              	.LM122:
 1048 0940 FEFFFFEB 		bl	UART_send_ringbuffer
 1049              	.LM123:
 1050 0944 0CD04BE2 		sub	sp, fp, #12
 1051 0948 00689DE8 		ldmfd	sp, {fp, sp, lr}
 1052 094c 1EFF2FE1 		bx	lr
 1053              	.L112:
 1054              		.align	2
 1055              	.L111:
 1056 0950 00000000 		.word	startstring
 1057 0954 00000000 		.word	stopstring
 1058              	.LFE15:
 1060              		.align	2
 1061              		.global	crc_update
 1063              	crc_update:
 1064              	.LFB16:
 1065              	.LM124:
 1066              		@ Function supports interworking.
 1067              		@ args = 0, pretend = 0, frame = 8
 1068              		@ frame_needed = 1, uses_anonymous_args = 0
 1069 0958 0DC0A0E1 		mov	ip, sp
 1070              	.LCFI54:
 1071 095c 00D82DE9 		stmfd	sp!, {fp, ip, lr, pc}
 1072              	.LCFI55:
 1073 0960 04B04CE2 		sub	fp, ip, #4
 1074              	.LCFI56:
 1075 0964 08D04DE2 		sub	sp, sp, #8
 1076              	.LCFI57:
 1077 0968 0030A0E1 		mov	r3, r0
 1078 096c 0120A0E1 		mov	r2, r1
 1079 0970 B0314BE1 		strh	r3, [fp, #-16]	@ movhi
 1080 0974 0230A0E1 		mov	r3, r2
 1081 0978 14304BE5 		strb	r3, [fp, #-20]
 1082              	.LM125:
 1083 097c B0315BE1 		ldrh	r3, [fp, #-16]	@ movhi
 1084 0980 FF3003E2 		and	r3, r3, #255
 1085 0984 FF3003E2 		and	r3, r3, #255
 1086 0988 14205BE5 		ldrb	r2, [fp, #-20]	@ zero_extendqisi2
 1087 098c 0310A0E1 		mov	r1, r3
 1088 0990 0230A0E1 		mov	r3, r2
 1089 0994 033021E0 		eor	r3, r1, r3
 1090 0998 FF3003E2 		and	r3, r3, #255
 1091 099c 14304BE5 		strb	r3, [fp, #-20]
 1092              	.LM126:
 1093 09a0 14305BE5 		ldrb	r3, [fp, #-20]	@ zero_extendqisi2
 1094 09a4 0332A0E1 		mov	r3, r3, asl #4
 1095 09a8 FF3003E2 		and	r3, r3, #255
 1096 09ac 14205BE5 		ldrb	r2, [fp, #-20]	@ zero_extendqisi2
 1097 09b0 0310A0E1 		mov	r1, r3
 1098 09b4 0230A0E1 		mov	r3, r2
 1099 09b8 033021E0 		eor	r3, r1, r3
 1100 09bc FF3003E2 		and	r3, r3, #255
 1101 09c0 14304BE5 		strb	r3, [fp, #-20]
 1102              	.LM127:
 1103 09c4 14305BE5 		ldrb	r3, [fp, #-20]	@ zero_extendqisi2
 1104 09c8 0334A0E1 		mov	r3, r3, asl #8
 1105 09cc 0338A0E1 		mov	r3, r3, asl #16
 1106 09d0 2328A0E1 		mov	r2, r3, lsr #16
 1107 09d4 B0315BE1 		ldrh	r3, [fp, #-16]
 1108 09d8 2334A0E1 		mov	r3, r3, lsr #8
 1109 09dc 0338A0E1 		mov	r3, r3, asl #16
 1110 09e0 2338A0E1 		mov	r3, r3, lsr #16
 1111 09e4 0338A0E1 		mov	r3, r3, asl #16
 1112 09e8 2338A0E1 		mov	r3, r3, lsr #16
 1113 09ec FF3003E2 		and	r3, r3, #255
 1114 09f0 033082E1 		orr	r3, r2, r3
 1115 09f4 0338A0E1 		mov	r3, r3, asl #16
 1116 09f8 2328A0E1 		mov	r2, r3, lsr #16
 1117 09fc 14305BE5 		ldrb	r3, [fp, #-20]	@ zero_extendqisi2
 1118 0a00 2332A0E1 		mov	r3, r3, lsr #4
 1119 0a04 FF3003E2 		and	r3, r3, #255
 1120 0a08 033022E0 		eor	r3, r2, r3
 1121 0a0c 0338A0E1 		mov	r3, r3, asl #16
 1122 0a10 2328A0E1 		mov	r2, r3, lsr #16
 1123 0a14 14305BE5 		ldrb	r3, [fp, #-20]	@ zero_extendqisi2
 1124 0a18 8331A0E1 		mov	r3, r3, asl #3
 1125 0a1c 0338A0E1 		mov	r3, r3, asl #16
 1126 0a20 2338A0E1 		mov	r3, r3, lsr #16
 1127 0a24 033022E0 		eor	r3, r2, r3
 1128 0a28 0338A0E1 		mov	r3, r3, asl #16
 1129 0a2c 2338A0E1 		mov	r3, r3, lsr #16
 1130 0a30 0338A0E1 		mov	r3, r3, asl #16
 1131 0a34 2338A0E1 		mov	r3, r3, lsr #16
 1132              	.LM128:
 1133 0a38 0300A0E1 		mov	r0, r3
 1134 0a3c 0CD04BE2 		sub	sp, fp, #12
 1135 0a40 00689DE8 		ldmfd	sp, {fp, sp, lr}
 1136 0a44 1EFF2FE1 		bx	lr
 1137              	.LFE16:
 1139              		.align	2
 1140              		.global	crc16
 1142              	crc16:
 1143              	.LFB17:
 1144              	.LM129:
 1145              		@ Function supports interworking.
 1146              		@ args = 0, pretend = 0, frame = 20
 1147              		@ frame_needed = 1, uses_anonymous_args = 0
 1148 0a48 0DC0A0E1 		mov	ip, sp
 1149              	.LCFI58:
 1150 0a4c 00D82DE9 		stmfd	sp!, {fp, ip, lr, pc}
 1151              	.LCFI59:
 1152 0a50 04B04CE2 		sub	fp, ip, #4
 1153              	.LCFI60:
 1154 0a54 14D04DE2 		sub	sp, sp, #20
 1155              	.LCFI61:
 1156 0a58 1C000BE5 		str	r0, [fp, #-28]
 1157 0a5c 0130A0E1 		mov	r3, r1
 1158 0a60 B0324BE1 		strh	r3, [fp, #-32]	@ movhi
 1159              	.LM130:
 1160 0a64 FF30A0E3 		mov	r3, #255
 1161 0a68 B6314BE1 		strh	r3, [fp, #-22]	@ movhi
 1162              	.LM131:
 1163 0a6c 1C301BE5 		ldr	r3, [fp, #-28]
 1164 0a70 14300BE5 		str	r3, [fp, #-20]
 1165              	.LM132:
 1166 0a74 0030A0E3 		mov	r3, #0
 1167 0a78 10300BE5 		str	r3, [fp, #-16]
 1168 0a7c 0D0000EA 		b	.L116
 1169              	.L117:
 1170              	.LM133:
 1171 0a80 B6215BE1 		ldrh	r2, [fp, #-22]
 1172 0a84 14301BE5 		ldr	r3, [fp, #-20]
 1173 0a88 0030D3E5 		ldrb	r3, [r3, #0]	@ zero_extendqisi2
 1174 0a8c 0200A0E1 		mov	r0, r2
 1175 0a90 0310A0E1 		mov	r1, r3
 1176 0a94 FEFFFFEB 		bl	crc_update
 1177 0a98 0030A0E1 		mov	r3, r0
 1178 0a9c B6314BE1 		strh	r3, [fp, #-22]	@ movhi
 1179              	.LM134:
 1180 0aa0 14301BE5 		ldr	r3, [fp, #-20]
 1181 0aa4 013083E2 		add	r3, r3, #1
 1182 0aa8 14300BE5 		str	r3, [fp, #-20]
 1183              	.LM135:
 1184 0aac 10301BE5 		ldr	r3, [fp, #-16]
 1185 0ab0 013083E2 		add	r3, r3, #1
 1186 0ab4 10300BE5 		str	r3, [fp, #-16]
 1187              	.L116:
 1188 0ab8 B0225BE1 		ldrh	r2, [fp, #-32]
 1189 0abc 10301BE5 		ldr	r3, [fp, #-16]
 1190 0ac0 030052E1 		cmp	r2, r3
 1191 0ac4 EDFFFFCA 		bgt	.L117
 1192              	.LM136:
 1193 0ac8 B6315BE1 		ldrh	r3, [fp, #-22]
 1194              	.LM137:
 1195 0acc 0300A0E1 		mov	r0, r3
 1196 0ad0 0CD04BE2 		sub	sp, fp, #12
 1197 0ad4 00689DE8 		ldmfd	sp, {fp, sp, lr}
 1198 0ad8 1EFF2FE1 		bx	lr
 1199              	.LFE17:
 1201              		.bss
 1202 0012 0000     		.align	2
 1203              	content.2179:
 1204 0014 00000000 		.space	4
 1205              		.align	2
 1206              	write_pointer.2178:
 1207 0018 00000000 		.space	4
 1208              		.align	2
 1209              	read_pointer.2177:
 1210 001c 00000000 		.space	4
 1211              	buffer.2176:
 1212 0020 00000000 		.space	384
 1212      00000000 
 1212      00000000 
 1212      00000000 
 1212      00000000 
 1213              		.text
 1214              		.align	2
 1215              		.global	ringbuffer
 1217              	ringbuffer:
 1218              	.LFB18:
 1219              	.LM138:
 1220              		@ Function supports interworking.
 1221              		@ args = 0, pretend = 0, frame = 24
 1222              		@ frame_needed = 1, uses_anonymous_args = 0
 1223 0adc 0DC0A0E1 		mov	ip, sp
 1224              	.LCFI62:
 1225 0ae0 00D82DE9 		stmfd	sp!, {fp, ip, lr, pc}
 1226              	.LCFI63:
 1227 0ae4 04B04CE2 		sub	fp, ip, #4
 1228              	.LCFI64:
 1229 0ae8 18D04DE2 		sub	sp, sp, #24
 1230              	.LCFI65:
 1231 0aec 0030A0E1 		mov	r3, r0
 1232 0af0 1C100BE5 		str	r1, [fp, #-28]
 1233 0af4 20200BE5 		str	r2, [fp, #-32]
 1234 0af8 18304BE5 		strb	r3, [fp, #-24]
 1235              	.LM139:
 1236 0afc 0030A0E3 		mov	r3, #0
 1237 0b00 14300BE5 		str	r3, [fp, #-20]
 1238              	.LM140:
 1239 0b04 0030A0E3 		mov	r3, #0
 1240 0b08 10300BE5 		str	r3, [fp, #-16]
 1241              	.LM141:
 1242 0b0c 18305BE5 		ldrb	r3, [fp, #-24]	@ zero_extendqisi2
 1243 0b10 010053E3 		cmp	r3, #1
 1244 0b14 2100001A 		bne	.L121
 1245              	.LM142:
 1246 0b18 98319FE5 		ldr	r3, .L143
 1247 0b1c 003093E5 		ldr	r3, [r3, #0]
 1248 0b20 062D63E2 		rsb	r2, r3, #384
 1249 0b24 20301BE5 		ldr	r3, [fp, #-32]
 1250 0b28 030052E1 		cmp	r2, r3
 1251 0b2c 5A00009A 		bls	.L129
 1252              	.LM143:
 1253 0b30 0D0000EA 		b	.L125
 1254              	.L126:
 1255              	.LM144:
 1256 0b34 80319FE5 		ldr	r3, .L143+4
 1257 0b38 001093E5 		ldr	r1, [r3, #0]
 1258 0b3c 14201BE5 		ldr	r2, [fp, #-20]
 1259 0b40 1C301BE5 		ldr	r3, [fp, #-28]
 1260 0b44 033082E0 		add	r3, r2, r3
 1261 0b48 0030D3E5 		ldrb	r3, [r3, #0]	@ zero_extendqisi2
 1262 0b4c 6C219FE5 		ldr	r2, .L143+8
 1263 0b50 0130C2E7 		strb	r3, [r2, r1]
 1264 0b54 012081E2 		add	r2, r1, #1
 1265 0b58 5C319FE5 		ldr	r3, .L143+4
 1266 0b5c 002083E5 		str	r2, [r3, #0]
 1267 0b60 14301BE5 		ldr	r3, [fp, #-20]
 1268 0b64 013083E2 		add	r3, r3, #1
 1269 0b68 14300BE5 		str	r3, [fp, #-20]
 1270              	.L125:
 1271              	.LM145:
 1272 0b6c 14201BE5 		ldr	r2, [fp, #-20]
 1273 0b70 20301BE5 		ldr	r3, [fp, #-32]
 1274 0b74 030052E1 		cmp	r2, r3
 1275 0b78 EDFFFF3A 		bcc	.L126
 1276              	.LM146:
 1277 0b7c 34319FE5 		ldr	r3, .L143
 1278 0b80 002093E5 		ldr	r2, [r3, #0]
 1279 0b84 20301BE5 		ldr	r3, [fp, #-32]
 1280 0b88 032082E0 		add	r2, r2, r3
 1281 0b8c 24319FE5 		ldr	r3, .L143
 1282 0b90 002083E5 		str	r2, [r3, #0]
 1283              	.LM147:
 1284 0b94 0130A0E3 		mov	r3, #1
 1285 0b98 24300BE5 		str	r3, [fp, #-36]
 1286 0b9c 400000EA 		b	.L128
 1287              	.L121:
 1288              	.LM148:
 1289 0ba0 18305BE5 		ldrb	r3, [fp, #-24]	@ zero_extendqisi2
 1290 0ba4 000053E3 		cmp	r3, #0
 1291 0ba8 2B00001A 		bne	.L130
 1292              	.LM149:
 1293 0bac 04319FE5 		ldr	r3, .L143
 1294 0bb0 002093E5 		ldr	r2, [r3, #0]
 1295 0bb4 20301BE5 		ldr	r3, [fp, #-32]
 1296 0bb8 030052E1 		cmp	r2, r3
 1297 0bbc 3600003A 		bcc	.L129
 1298              	.LM150:
 1299 0bc0 0E0000EA 		b	.L134
 1300              	.L135:
 1301              	.LM151:
 1302 0bc4 10201BE5 		ldr	r2, [fp, #-16]
 1303 0bc8 1C301BE5 		ldr	r3, [fp, #-28]
 1304 0bcc 032082E0 		add	r2, r2, r3
 1305 0bd0 EC309FE5 		ldr	r3, .L143+12
 1306 0bd4 001093E5 		ldr	r1, [r3, #0]
 1307 0bd8 E0309FE5 		ldr	r3, .L143+8
 1308 0bdc 0130D3E7 		ldrb	r3, [r3, r1]
 1309 0be0 FF3003E2 		and	r3, r3, #255
 1310 0be4 0030C2E5 		strb	r3, [r2, #0]
 1311 0be8 10301BE5 		ldr	r3, [fp, #-16]
 1312 0bec 013083E2 		add	r3, r3, #1
 1313 0bf0 10300BE5 		str	r3, [fp, #-16]
 1314 0bf4 012081E2 		add	r2, r1, #1
 1315 0bf8 C4309FE5 		ldr	r3, .L143+12
 1316 0bfc 002083E5 		str	r2, [r3, #0]
 1317              	.L134:
 1318              	.LM152:
 1319 0c00 10201BE5 		ldr	r2, [fp, #-16]
 1320 0c04 20301BE5 		ldr	r3, [fp, #-32]
 1321 0c08 030052E1 		cmp	r2, r3
 1322 0c0c ECFFFF3A 		bcc	.L135
 1323              	.LM153:
 1324 0c10 A0309FE5 		ldr	r3, .L143
 1325 0c14 002093E5 		ldr	r2, [r3, #0]
 1326 0c18 20301BE5 		ldr	r3, [fp, #-32]
 1327 0c1c 022063E0 		rsb	r2, r3, r2
 1328 0c20 90309FE5 		ldr	r3, .L143
 1329 0c24 002083E5 		str	r2, [r3, #0]
 1330              	.LM154:
 1331 0c28 88309FE5 		ldr	r3, .L143
 1332 0c2c 003093E5 		ldr	r3, [r3, #0]
 1333 0c30 000053E3 		cmp	r3, #0
 1334 0c34 0500001A 		bne	.L137
 1335              	.LM155:
 1336 0c38 7C209FE5 		ldr	r2, .L143+4
 1337 0c3c 0030A0E3 		mov	r3, #0
 1338 0c40 003082E5 		str	r3, [r2, #0]
 1339              	.LM156:
 1340 0c44 78209FE5 		ldr	r2, .L143+12
 1341 0c48 0030A0E3 		mov	r3, #0
 1342 0c4c 003082E5 		str	r3, [r2, #0]
 1343              	.L137:
 1344              	.LM157:
 1345 0c50 0130A0E3 		mov	r3, #1
 1346 0c54 24300BE5 		str	r3, [fp, #-36]
 1347 0c58 110000EA 		b	.L128
 1348              	.L130:
 1349              	.LM158:
 1350 0c5c 18305BE5 		ldrb	r3, [fp, #-24]	@ zero_extendqisi2
 1351 0c60 020053E3 		cmp	r3, #2
 1352 0c64 0C00001A 		bne	.L129
 1353              	.LM159:
 1354 0c68 48309FE5 		ldr	r3, .L143
 1355 0c6c 003093E5 		ldr	r3, [r3, #0]
 1356 0c70 000053E3 		cmp	r3, #0
 1357 0c74 0200000A 		beq	.L140
 1358 0c78 0030A0E3 		mov	r3, #0
 1359 0c7c 24300BE5 		str	r3, [fp, #-36]
 1360 0c80 070000EA 		b	.L128
 1361              	.L140:
 1362              	.LM160:
 1363 0c84 5D3FA0E3 		mov	r3, #372
 1364 0c88 24300BE5 		str	r3, [fp, #-36]
 1365 0c8c 24301BE5 		ldr	r3, [fp, #-36]
 1366 0c90 013083E2 		add	r3, r3, #1
 1367 0c94 24300BE5 		str	r3, [fp, #-36]
 1368 0c98 010000EA 		b	.L128
 1369              	.L129:
 1370              	.LM161:
 1371 0c9c 0030A0E3 		mov	r3, #0
 1372 0ca0 24300BE5 		str	r3, [fp, #-36]
 1373              	.L128:
 1374 0ca4 24301BE5 		ldr	r3, [fp, #-36]
 1375              	.LM162:
 1376 0ca8 0300A0E1 		mov	r0, r3
 1377 0cac 0CD04BE2 		sub	sp, fp, #12
 1378 0cb0 00689DE8 		ldmfd	sp, {fp, sp, lr}
 1379 0cb4 1EFF2FE1 		bx	lr
 1380              	.L144:
 1381              		.align	2
 1382              	.L143:
 1383 0cb8 14000000 		.word	content.2179
 1384 0cbc 18000000 		.word	write_pointer.2178
 1385 0cc0 20000000 		.word	buffer.2176
 1386 0cc4 1C000000 		.word	read_pointer.2177
 1387              	.LFE18:
 1389              		.bss
 1390              		.align	2
 1391              	content.2233:
 1392 01a0 00000000 		.space	4
 1393              		.align	2
 1394              	write_pointer.2232:
 1395 01a4 00000000 		.space	4
 1396              		.align	2
 1397              	read_pointer.2231:
 1398 01a8 00000000 		.space	4
 1399              	buffer.2230:
 1400 01ac 00000000 		.space	384
 1400      00000000 
 1400      00000000 
 1400      00000000 
 1400      00000000 
 1401              		.text
 1402              		.align	2
 1403              		.global	ringbuffer1
 1405              	ringbuffer1:
 1406              	.LFB19:
 1407              	.LM163:
 1408              		@ Function supports interworking.
 1409              		@ args = 0, pretend = 0, frame = 24
 1410              		@ frame_needed = 1, uses_anonymous_args = 0
 1411 0cc8 0DC0A0E1 		mov	ip, sp
 1412              	.LCFI66:
 1413 0ccc 00D82DE9 		stmfd	sp!, {fp, ip, lr, pc}
 1414              	.LCFI67:
 1415 0cd0 04B04CE2 		sub	fp, ip, #4
 1416              	.LCFI68:
 1417 0cd4 18D04DE2 		sub	sp, sp, #24
 1418              	.LCFI69:
 1419 0cd8 0030A0E1 		mov	r3, r0
 1420 0cdc 1C100BE5 		str	r1, [fp, #-28]
 1421 0ce0 20200BE5 		str	r2, [fp, #-32]
 1422 0ce4 18304BE5 		strb	r3, [fp, #-24]
 1423              	.LM164:
 1424 0ce8 0030A0E3 		mov	r3, #0
 1425 0cec 14300BE5 		str	r3, [fp, #-20]
 1426              	.LM165:
 1427 0cf0 0030A0E3 		mov	r3, #0
 1428 0cf4 10300BE5 		str	r3, [fp, #-16]
 1429              	.LM166:
 1430 0cf8 18305BE5 		ldrb	r3, [fp, #-24]	@ zero_extendqisi2
 1431 0cfc 010053E3 		cmp	r3, #1
 1432 0d00 2100001A 		bne	.L146
 1433              	.LM167:
 1434 0d04 98319FE5 		ldr	r3, .L168
 1435 0d08 003093E5 		ldr	r3, [r3, #0]
 1436 0d0c 062D63E2 		rsb	r2, r3, #384
 1437 0d10 20301BE5 		ldr	r3, [fp, #-32]
 1438 0d14 030052E1 		cmp	r2, r3
 1439 0d18 5A00009A 		bls	.L154
 1440              	.LM168:
 1441 0d1c 0D0000EA 		b	.L150
 1442              	.L151:
 1443              	.LM169:
 1444 0d20 80319FE5 		ldr	r3, .L168+4
 1445 0d24 001093E5 		ldr	r1, [r3, #0]
 1446 0d28 14201BE5 		ldr	r2, [fp, #-20]
 1447 0d2c 1C301BE5 		ldr	r3, [fp, #-28]
 1448 0d30 033082E0 		add	r3, r2, r3
 1449 0d34 0030D3E5 		ldrb	r3, [r3, #0]	@ zero_extendqisi2
 1450 0d38 6C219FE5 		ldr	r2, .L168+8
 1451 0d3c 0130C2E7 		strb	r3, [r2, r1]
 1452 0d40 012081E2 		add	r2, r1, #1
 1453 0d44 5C319FE5 		ldr	r3, .L168+4
 1454 0d48 002083E5 		str	r2, [r3, #0]
 1455 0d4c 14301BE5 		ldr	r3, [fp, #-20]
 1456 0d50 013083E2 		add	r3, r3, #1
 1457 0d54 14300BE5 		str	r3, [fp, #-20]
 1458              	.L150:
 1459              	.LM170:
 1460 0d58 14201BE5 		ldr	r2, [fp, #-20]
 1461 0d5c 20301BE5 		ldr	r3, [fp, #-32]
 1462 0d60 030052E1 		cmp	r2, r3
 1463 0d64 EDFFFF3A 		bcc	.L151
 1464              	.LM171:
 1465 0d68 34319FE5 		ldr	r3, .L168
 1466 0d6c 002093E5 		ldr	r2, [r3, #0]
 1467 0d70 20301BE5 		ldr	r3, [fp, #-32]
 1468 0d74 032082E0 		add	r2, r2, r3
 1469 0d78 24319FE5 		ldr	r3, .L168
 1470 0d7c 002083E5 		str	r2, [r3, #0]
 1471              	.LM172:
 1472 0d80 0130A0E3 		mov	r3, #1
 1473 0d84 24300BE5 		str	r3, [fp, #-36]
 1474 0d88 400000EA 		b	.L153
 1475              	.L146:
 1476              	.LM173:
 1477 0d8c 18305BE5 		ldrb	r3, [fp, #-24]	@ zero_extendqisi2
 1478 0d90 000053E3 		cmp	r3, #0
 1479 0d94 2B00001A 		bne	.L155
 1480              	.LM174:
 1481 0d98 04319FE5 		ldr	r3, .L168
 1482 0d9c 002093E5 		ldr	r2, [r3, #0]
 1483 0da0 20301BE5 		ldr	r3, [fp, #-32]
 1484 0da4 030052E1 		cmp	r2, r3
 1485 0da8 3600003A 		bcc	.L154
 1486              	.LM175:
 1487 0dac 0E0000EA 		b	.L159
 1488              	.L160:
 1489              	.LM176:
 1490 0db0 10201BE5 		ldr	r2, [fp, #-16]
 1491 0db4 1C301BE5 		ldr	r3, [fp, #-28]
 1492 0db8 032082E0 		add	r2, r2, r3
 1493 0dbc EC309FE5 		ldr	r3, .L168+12
 1494 0dc0 001093E5 		ldr	r1, [r3, #0]
 1495 0dc4 E0309FE5 		ldr	r3, .L168+8
 1496 0dc8 0130D3E7 		ldrb	r3, [r3, r1]
 1497 0dcc FF3003E2 		and	r3, r3, #255
 1498 0dd0 0030C2E5 		strb	r3, [r2, #0]
 1499 0dd4 10301BE5 		ldr	r3, [fp, #-16]
 1500 0dd8 013083E2 		add	r3, r3, #1
 1501 0ddc 10300BE5 		str	r3, [fp, #-16]
 1502 0de0 012081E2 		add	r2, r1, #1
 1503 0de4 C4309FE5 		ldr	r3, .L168+12
 1504 0de8 002083E5 		str	r2, [r3, #0]
 1505              	.L159:
 1506              	.LM177:
 1507 0dec 10201BE5 		ldr	r2, [fp, #-16]
 1508 0df0 20301BE5 		ldr	r3, [fp, #-32]
 1509 0df4 030052E1 		cmp	r2, r3
 1510 0df8 ECFFFF3A 		bcc	.L160
 1511              	.LM178:
 1512 0dfc A0309FE5 		ldr	r3, .L168
 1513 0e00 002093E5 		ldr	r2, [r3, #0]
 1514 0e04 20301BE5 		ldr	r3, [fp, #-32]
 1515 0e08 022063E0 		rsb	r2, r3, r2
 1516 0e0c 90309FE5 		ldr	r3, .L168
 1517 0e10 002083E5 		str	r2, [r3, #0]
 1518              	.LM179:
 1519 0e14 88309FE5 		ldr	r3, .L168
 1520 0e18 003093E5 		ldr	r3, [r3, #0]
 1521 0e1c 000053E3 		cmp	r3, #0
 1522 0e20 0500001A 		bne	.L162
 1523              	.LM180:
 1524 0e24 7C209FE5 		ldr	r2, .L168+4
 1525 0e28 0030A0E3 		mov	r3, #0
 1526 0e2c 003082E5 		str	r3, [r2, #0]
 1527              	.LM181:
 1528 0e30 78209FE5 		ldr	r2, .L168+12
 1529 0e34 0030A0E3 		mov	r3, #0
 1530 0e38 003082E5 		str	r3, [r2, #0]
 1531              	.L162:
 1532              	.LM182:
 1533 0e3c 0130A0E3 		mov	r3, #1
 1534 0e40 24300BE5 		str	r3, [fp, #-36]
 1535 0e44 110000EA 		b	.L153
 1536              	.L155:
 1537              	.LM183:
 1538 0e48 18305BE5 		ldrb	r3, [fp, #-24]	@ zero_extendqisi2
 1539 0e4c 020053E3 		cmp	r3, #2
 1540 0e50 0C00001A 		bne	.L154
 1541              	.LM184:
 1542 0e54 48309FE5 		ldr	r3, .L168
 1543 0e58 003093E5 		ldr	r3, [r3, #0]
 1544 0e5c 000053E3 		cmp	r3, #0
 1545 0e60 0200000A 		beq	.L165
 1546 0e64 0030A0E3 		mov	r3, #0
 1547 0e68 24300BE5 		str	r3, [fp, #-36]
 1548 0e6c 070000EA 		b	.L153
 1549              	.L165:
 1550              	.LM185:
 1551 0e70 5D3FA0E3 		mov	r3, #372
 1552 0e74 24300BE5 		str	r3, [fp, #-36]
 1553 0e78 24301BE5 		ldr	r3, [fp, #-36]
 1554 0e7c 013083E2 		add	r3, r3, #1
 1555 0e80 24300BE5 		str	r3, [fp, #-36]
 1556 0e84 010000EA 		b	.L153
 1557              	.L154:
 1558              	.LM186:
 1559 0e88 0030A0E3 		mov	r3, #0
 1560 0e8c 24300BE5 		str	r3, [fp, #-36]
 1561              	.L153:
 1562 0e90 24301BE5 		ldr	r3, [fp, #-36]
 1563              	.LM187:
 1564 0e94 0300A0E1 		mov	r0, r3
 1565 0e98 0CD04BE2 		sub	sp, fp, #12
 1566 0e9c 00689DE8 		ldmfd	sp, {fp, sp, lr}
 1567 0ea0 1EFF2FE1 		bx	lr
 1568              	.L169:
 1569              		.align	2
 1570              	.L168:
 1571 0ea4 A0010000 		.word	content.2233
 1572 0ea8 A4010000 		.word	write_pointer.2232
 1573 0eac AC010000 		.word	buffer.2230
 1574 0eb0 A8010000 		.word	read_pointer.2231
 1575              	.LFE19:
 1577              		.comm	GPS_timeout,4,4
 1578              		.comm	SYSTEM_initialized,1,1
 1579              		.comm	send_buffer,16,1
 1580              		.comm	SSP_trans_cnt,4,4
 1581              		.comm	packets,1,1
 1582              		.comm	DataOutputsPerSecond,1,1
 1583              		.comm	uart_cnt,4,4
 1584              		.comm	current_chksum,2,2
 1585              		.comm	tx_buff,4,4
 1586              		.comm	UART_rxptr,4,4
 1587              		.comm	UART1_rxptr,4,4
 2054              	.Letext0: